(lp0
(dp1
S'ids'
p2
(lp3
F0.0
aF0.0
aF0.0
aF0.0
aF0.0
aF0.0
aF0.0
aF0.0
aF0.0
aF0.0
aF0.0
aF0.0
aF0.0
aF0.0
aF0.0
aF0.0
aF0.0
aF0.0
aF0.0
aF0.0
aF0.0
aF0.0
aF0.0
aF0.0
aF0.0
aF0.0
aF0.0
aF0.0
aF0.0
aF0.0
aF0.0
aF0.0
aF0.0
aF0.0
aF0.0
aF0.0
aF0.0
aF0.0
aF0.0
aF0.0
aF0.0
aF0.0
aF0.0
aF0.0
aF0.0
aF0.0
aF0.0
aF0.0
aF0.0
aF0.0
aF0.0
aF0.0
aF0.0
aF0.0
aF0.0
aF0.0
aF0.0
aF0.0
aF0.0
aF0.0
aF0.0
aF0.0
aF0.0
aF0.0
aF0.0
aF0.0
aF0.0
aF0.0
aF0.0
aF0.0
aF0.0
aF0.0
aF0.0
aF0.0
aF0.0
aF0.0
aF0.0
aF0.0
aF0.0
aF0.0
aF0.0
aF0.0
aF0.0
aF0.0
aF0.0
aF0.0
aF0.0
aF0.0
aF0.0
aF0.0
aF0.0
aF0.0
aF0.0
aF0.0
aF0.0
aF0.0
aF0.0
aF0.0
aF0.0
aF0.0
aF0.0
aF0.0
aF0.0
aF0.0
aF0.0
aF0.0
aF0.0
aF0.0
aF0.0
aF0.0
aF0.0
aF0.0
aF0.0
aF0.0
aF0.0
aF0.0
aF0.0
aF0.0
aF0.0
aF0.0
aF0.0
aF0.0
aF0.0
aF0.0
aF0.0
aF0.0
aF0.0
aF0.0
aF0.0
aF0.0
aF0.0
aF0.0
aF0.0
aF0.0
aF0.0
aF0.0
aF0.0
aF0.0
aF0.0
aF0.0
aF0.0
aF0.0
aF0.0
aF0.0
aF0.0
aF0.0
aF0.0
aF0.0
aF0.0
aF0.0
aF0.0
aF0.0
aF0.0
aF0.0
aF0.0
aF0.0
aF0.0
aF0.0
aF0.0
aF0.0
aF0.0
aF0.0
aF0.0
aF0.0
aF0.0
aF0.0
aF0.0
aF0.0
aF0.0
aF0.0
aF0.0
aF0.0
aF0.0
aF0.0
aF0.0
aF0.0
aF0.0
aF0.0
aF0.0
aF0.0
aF0.0
aF0.0
aF0.0
aF0.0
aF0.0
aF0.0
aF0.0
aF0.0
aF0.0
aF0.0
aF0.0
aF0.0
aF0.0
aF0.0
aF0.0
aF0.0
aF0.0
aF0.0
aF0.0
aF0.0
aF0.0
aF0.0
aF0.0
aF0.0
aF0.0
aF0.0
aF0.0
aF0.0
aF0.0
aF0.0
aF0.0
aF0.0
aF0.0
aF0.0
aF0.0
aF0.0
aF0.0
aF0.0
aF0.0
aF0.0
aF0.0
aF0.0
aF0.0
aF0.0
aF0.0
aF0.0
aF0.0
aF0.0
aF0.0
aF0.0
aF0.0
aF0.0
aF0.0
aF0.0
aF0.0
aF0.0
aF0.0
aF0.0
aF0.0
aF0.0
aF0.0
aF0.0
aF0.0
aF0.0
aF0.0
aF0.0
aF0.0
aF0.0
aF0.0
aF0.0
aF0.0
aF0.0
aF0.0
aF0.0
aF0.0
aF0.0
aF0.0
aF0.0
aF0.0
aF0.0
aF0.0
aF0.0
asS'times'
p4
(lp5
F7.7500000001
aF15.2500000001
aF23.0000000001
aF30.5000000001
aF38.0000000001
aF45.5000000001
aF53.0000000001
aF60.5000000001
aF68.0000000001
aF75.5000000001
aF83.0000000001
aF90.0000000001
aF97.7500000001
aF105.2500000001
aF112.7500000001
aF120.0000000001
aF127.5000000001
aF135.0000000001
aF142.5000000001
aF150.0000000001
aF157.5000000001
aF164.7500000001
aF171.7500000001
aF178.7500000001
aF185.7500000001
aF193.0000000001
aF200.5000000001
aF208.0000000001
aF215.5000000001
aF223.0000000001
aF230.5000000001
aF238.0000000001
aF245.2500000001
aF252.2500000001
aF259.5000000001
aF267.0000000001
aF274.5000000001
aF282.0000000001
aF289.5000000001
aF297.2500000001
aF304.5000000001
aF311.2500000001
aF318.2500000001
aF325.2500000001
aF332.5000000001
aF340.0000000001
aF347.5000000001
aF355.2500000001
aF362.2500000001
aF370.0000000001
aF377.5000000001
aF384.5000000001
aF391.5000000001
aF398.7500000001
aF406.2500000001
aF413.7500000001
aF421.2500000001
aF429.0000000001
aF436.5000000001
aF443.7500000001
aF450.7500000001
aF457.5000000001
aF464.7500000001
aF472.0000000001
aF479.5000000001
aF487.0000000001
aF494.5000000001
aF501.5000000001
aF509.0000000001
aF516.5000000001
aF523.5000000001
aF530.5000000001
aF537.7500000001
aF545.0000000001
aF552.5000000001
aF560.2500000001
aF567.7500000001
aF575.2500000001
aF582.5000000001
aF589.5000000001
aF596.2500000001
aF603.5000000001
aF610.7500000001
aF618.2500000001
aF625.7500000001
aF633.2500000001
aF640.2500000001
aF648.0000000001
aF655.2500000001
aF662.2500000001
aF669.2500000001
aF676.5000000001
aF683.7500000001
aF691.2500000001
aF699.0000000001
aF706.5000000001
aF714.0000000001
aF721.2500000001
aF728.2500000001
aF735.2500000001
aF742.2500000001
aF749.7500000001
aF757.2500000001
aF764.7500000001
aF772.2500000001
aF779.0000000001
aF786.7500000001
aF794.0000000001
aF801.0000000001
aF808.0000000001
aF815.2500000001
aF822.7500000001
aF830.2500000001
aF837.7500000001
aF845.2500000001
aF852.7500000001
aF860.2500000001
aF867.2500000001
aF874.0000000001
aF881.2500000001
aF888.5000000001
aF896.0000000001
aF903.5000000001
aF911.0000000001
aF918.0000000001
aF925.7500000001
aF932.7500000001
aF939.7500000001
aF946.7500000001
aF954.0000000001
aF961.5000000001
aF969.0000000001
aF976.5000000001
aF984.0000000001
aF991.5000000001
aF999.0000000001
aF1006.0000000001
aF1013.0000000001
aF1020.0000000001
aF1027.5000000001
aF1035.0000000001
aF1042.5000000001
aF1050.0000000001
aF1056.7500000001
aF1064.5000000001
aF1071.5000000001
aF1078.5000000001
aF1085.5000000001
aF1092.7500000001
aF1100.2500000001
aF1107.7500000001
aF1115.2500000001
aF1122.7500000001
aF1130.2500000001
aF1137.7500000001
aF1144.7500000001
aF1151.7500000001
aF1158.7500000001
aF1166.2500000001
aF1173.5000000001
aF1181.0000000001
aF1188.5000000001
aF1195.5000000001
aF1203.2500000001
aF1210.2500000001
aF1217.2500000001
aF1224.2500000001
aF1231.5000000001
aF1239.0000000001
aF1246.5000000001
aF1254.0000000001
aF1261.5000000001
aF1269.0000000001
aF1276.5000000001
aF1283.2500000001
aF1290.2500000001
aF1297.5000000001
aF1304.7500000001
aF1312.2500000001
aF1319.7500000001
aF1327.2500000001
aF1334.0000000001
aF1341.7500000001
aF1349.0000000001
aF1355.7500000001
aF1363.0000000001
aF1370.2500000001
aF1377.5000000001
aF1385.0000000001
aF1392.5000000001
aF1400.0000000001
aF1407.5000000001
aF1415.0000000001
aF1422.0000000001
aF1429.0000000001
aF1436.2500000001
aF1443.5000000001
aF1451.0000000001
aF1458.5000000001
aF1466.0000000001
aF1472.7500000001
aF1480.5000000001
aF1487.7500000001
aF1494.5000000001
aF1501.5000000001
aF1508.7500000001
aF1516.2500000001
aF1523.7500000001
aF1531.2500000001
aF1538.7500000001
aF1546.2500000001
aF1553.7500000001
aF1560.7500000001
aF1567.7500000001
aF1574.7500000001
aF1582.2500000001
aF1589.7500000001
aF1597.2500000001
aF1604.7500000001
aF1611.7500000001
aF1619.2500000001
aF1626.2500000001
aF1633.2500000001
aF1640.2500000001
aF1647.5000000001
aF1654.7500000001
aF1662.2500000001
aF1669.7500000001
aF1677.2500000001
aF1684.7500000001
aF1692.2500000001
aF1699.2500000001
aF1706.2500000001
aF1713.2500000001
aF1720.7500000001
aF1728.2500000001
aF1735.7500000001
aF1743.2500000001
aF1750.0000000001
aF1757.7500000001
aF1765.0000000001
aF1771.7500000001
aF1778.7500000001
aF1786.0000000001
aF1793.5000000001
aF1801.0000000001
aF1808.5000000001
aF1816.0000000001
aF1823.5000000001
aF1831.0000000001
aF1838.0000000001
aF1845.0000000001
aF1852.0000000001
aF1859.5000000001
aF1866.7500000001
aF1874.2500000001
aF1882.0000000001
aF1888.7500000001
aF1896.5000000001
aF1903.5000000001
aF1910.5000000001
aF1917.5000000001
asa(dp6
g2
(lp7
F1.0
aF1.0
aF1.0
aF1.0
aF1.0
aF1.0
aF1.0
aF1.0
aF1.0
aF1.0
aF1.0
aF1.0
aF1.0
aF1.0
aF1.0
aF1.0
aF1.0
aF1.0
aF1.0
aF1.0
aF1.0
aF1.0
aF1.0
aF1.0
aF1.0
aF1.0
aF1.0
aF1.0
aF1.0
aF1.0
aF1.0
aF1.0
aF1.0
aF1.0
aF1.0
aF1.0
aF1.0
aF1.0
aF1.0
aF1.0
aF1.0
aF1.0
aF1.0
aF1.0
aF1.0
aF1.0
aF1.0
aF1.0
aF1.0
aF1.0
aF1.0
aF1.0
aF1.0
aF1.0
aF1.0
aF1.0
aF1.0
aF1.0
aF1.0
aF1.0
aF1.0
aF1.0
aF1.0
aF1.0
aF1.0
aF1.0
aF1.0
aF1.0
aF1.0
aF1.0
aF1.0
aF1.0
aF1.0
aF1.0
aF1.0
aF1.0
aF1.0
aF1.0
aF1.0
aF1.0
aF1.0
aF1.0
aF1.0
aF1.0
aF1.0
aF1.0
aF1.0
aF1.0
aF1.0
aF1.0
aF1.0
aF1.0
aF1.0
aF1.0
aF1.0
aF1.0
aF1.0
aF1.0
aF1.0
aF1.0
aF1.0
aF1.0
aF1.0
aF1.0
aF1.0
aF1.0
aF1.0
aF1.0
aF1.0
aF1.0
aF1.0
aF1.0
aF1.0
aF1.0
aF1.0
aF1.0
aF1.0
aF1.0
aF1.0
aF1.0
aF1.0
aF1.0
aF1.0
aF1.0
aF1.0
aF1.0
aF1.0
aF1.0
aF1.0
aF1.0
aF1.0
aF1.0
aF1.0
aF1.0
aF1.0
aF1.0
aF1.0
aF1.0
aF1.0
aF1.0
aF1.0
aF1.0
aF1.0
aF1.0
aF1.0
aF1.0
aF1.0
aF1.0
aF1.0
aF1.0
aF1.0
aF1.0
aF1.0
aF1.0
aF1.0
aF1.0
aF1.0
aF1.0
aF1.0
aF1.0
aF1.0
aF1.0
aF1.0
aF1.0
aF1.0
aF1.0
aF1.0
aF1.0
aF1.0
aF1.0
aF1.0
aF1.0
aF1.0
aF1.0
aF1.0
aF1.0
aF1.0
aF1.0
aF1.0
aF1.0
aF1.0
aF1.0
aF1.0
aF1.0
aF1.0
aF1.0
aF1.0
aF1.0
aF1.0
aF1.0
aF1.0
aF1.0
aF1.0
aF1.0
aF1.0
aF1.0
aF1.0
aF1.0
aF1.0
aF1.0
aF1.0
aF1.0
aF1.0
aF1.0
aF1.0
aF1.0
aF1.0
aF1.0
aF1.0
aF1.0
aF1.0
aF1.0
aF1.0
aF1.0
aF1.0
aF1.0
aF1.0
aF1.0
aF1.0
aF1.0
aF1.0
aF1.0
aF1.0
aF1.0
aF1.0
aF1.0
aF1.0
aF1.0
aF1.0
aF1.0
aF1.0
aF1.0
aF1.0
aF1.0
aF1.0
aF1.0
aF1.0
aF1.0
aF1.0
aF1.0
aF1.0
aF1.0
aF1.0
aF1.0
aF1.0
aF1.0
aF1.0
aF1.0
aF1.0
aF1.0
aF1.0
aF1.0
aF1.0
aF1.0
aF1.0
aF1.0
aF1.0
aF1.0
aF1.0
aF1.0
aF1.0
aF1.0
aF1.0
aF1.0
aF1.0
aF1.0
aF1.0
asg4
(lp8
F7.7500000001
aF15.2500000001
aF23.0000000001
aF30.5000000001
aF38.0000000001
aF45.5000000001
aF53.0000000001
aF60.5000000001
aF68.0000000001
aF75.5000000001
aF83.0000000001
aF89.7500000001
aF96.7500000001
aF104.2500000001
aF111.7500000001
aF119.0000000001
aF126.2500000001
aF133.7500000001
aF141.2500000001
aF148.7500000001
aF155.5000000001
aF163.0000000001
aF170.2500000001
aF177.0000000001
aF183.7500000001
aF191.0000000001
aF198.5000000001
aF206.0000000001
aF213.5000000001
aF221.0000000001
aF228.0000000001
aF235.5000000001
aF242.2500000001
aF249.0000000001
aF256.0000000001
aF263.2500000001
aF270.7500000001
aF278.2500000001
aF285.7500000001
aF293.0000000001
aF300.0000000001
aF307.5000000001
aF314.2500000001
aF321.0000000001
aF328.2500000001
aF335.5000000001
aF343.0000000001
aF350.5000000001
aF358.0000000001
aF365.2500000001
aF372.2500000001
aF378.7500000001
aF385.0000000001
aF391.7500000001
aF399.0000000001
aF406.5000000001
aF414.0000000001
aF421.5000000001
aF429.0000000001
aF436.0000000001
aF443.2500000001
aF450.0000000001
aF456.5000000001
aF463.5000000001
aF470.5000000001
aF478.0000000001
aF485.2500000001
aF492.7500000001
aF500.2500000001
aF507.2500000001
aF515.0000000001
aF522.0000000001
aF529.0000000001
aF536.2500000001
aF543.5000000001
aF551.0000000001
aF558.5000000001
aF566.0000000001
aF572.7500000001
aF580.2500000001
aF586.7500000001
aF593.2500000001
aF600.2500000001
aF607.2500000001
aF614.7500000001
aF622.0000000001
aF629.5000000001
aF637.0000000001
aF644.2500000001
aF651.5000000001
aF658.0000000001
aF664.7500000001
aF671.5000000001
aF678.7500000001
aF686.2500000001
aF693.7500000001
aF701.2500000001
aF708.7500000001
aF715.7500000001
aF723.2500000001
aF730.2500000001
aF737.2500000001
aF744.2500000001
aF751.7500000001
aF759.0000000001
aF766.5000000001
aF774.0000000001
aF781.0000000001
aF788.2500000001
aF794.7500000001
aF801.2500000001
aF808.0000000001
aF815.0000000001
aF822.5000000001
aF830.0000000001
aF837.5000000001
aF845.0000000001
aF852.0000000001
aF859.2500000001
aF865.7500000001
aF872.2500000001
aF879.2500000001
aF886.5000000001
aF893.7500000001
aF901.2500000001
aF908.7500000001
aF916.2500000001
aF923.2500000001
aF930.7500000001
aF938.0000000001
aF945.0000000001
aF952.2500000001
aF959.7500000001
aF967.0000000001
aF974.5000000001
aF982.0000000001
aF989.0000000001
aF996.2500000001
aF1002.7500000001
aF1009.2500000001
aF1016.0000000001
aF1023.0000000001
aF1030.5000000001
aF1038.0000000001
aF1045.5000000001
aF1053.0000000001
aF1060.0000000001
aF1067.2500000001
aF1073.7500000001
aF1080.2500000001
aF1087.2500000001
aF1094.5000000001
aF1101.7500000001
aF1109.2500000001
aF1116.7500000001
aF1124.2500000001
aF1131.2500000001
aF1138.7500000001
aF1146.0000000001
aF1153.0000000001
aF1160.2500000001
aF1167.5000000001
aF1175.0000000001
aF1182.5000000001
aF1190.0000000001
aF1196.5000000001
aF1204.2500000001
aF1210.7500000001
aF1217.2500000001
aF1224.2500000001
aF1231.2500000001
aF1238.5000000001
aF1246.0000000001
aF1253.5000000001
aF1261.0000000001
aF1268.2500000001
aF1275.2500000001
aF1281.7500000001
aF1288.5000000001
aF1295.2500000001
aF1302.5000000001
aF1310.0000000001
aF1317.2500000001
aF1324.7500000001
aF1332.2500000001
aF1339.2500000001
aF1346.7500000001
aF1354.0000000001
aF1361.0000000001
aF1368.2500000001
aF1375.5000000001
aF1383.0000000001
aF1390.5000000001
aF1398.0000000001
aF1405.0000000001
aF1412.0000000001
aF1418.5000000001
aF1424.7500000001
aF1431.5000000001
aF1438.7500000001
aF1446.0000000001
aF1453.5000000001
aF1461.0000000001
aF1468.5000000001
aF1475.7500000001
aF1482.7500000001
aF1489.0000000001
aF1495.5000000001
aF1502.5000000001
aF1509.5000000001
aF1517.0000000001
aF1524.2500000001
aF1531.7500000001
aF1539.2500000001
aF1546.2500000001
aF1553.7500000001
aF1560.7500000001
aF1567.7500000001
aF1574.7500000001
aF1582.0000000001
aF1589.5000000001
aF1597.0000000001
aF1604.5000000001
aF1611.0000000001
aF1618.7500000001
aF1625.7500000001
aF1632.5000000001
aF1639.5000000001
aF1646.5000000001
aF1654.0000000001
aF1661.2500000001
aF1668.7500000001
aF1676.2500000001
aF1683.7500000001
aF1690.5000000001
aF1697.0000000001
aF1703.5000000001
aF1710.2500000001
aF1717.5000000001
aF1724.7500000001
aF1732.2500000001
aF1739.7500000001
aF1747.2500000001
aF1754.2500000001
aF1761.7500000001
aF1768.7500000001
aF1775.5000000001
aF1782.7500000001
aF1790.0000000001
aF1797.2500000001
aF1804.7500000001
aF1812.2500000001
aF1819.0000000001
aF1826.5000000001
aF1833.7500000001
aF1840.5000000001
aF1847.2500000001
aF1854.5000000001
aF1861.7500000001
aF1869.2500000001
aF1876.7500000001
aF1884.2500000001
aF1891.5000000001
aF1898.5000000001
aF1905.0000000001
aF1911.5000000001
aF1918.2500000001
asa(dp9
g2
(lp10
F2.0
aF2.0
aF2.0
aF2.0
aF2.0
aF2.0
aF2.0
aF2.0
aF2.0
aF2.0
aF2.0
aF2.0
aF2.0
aF2.0
aF2.0
aF2.0
aF2.0
aF2.0
aF2.0
aF2.0
aF2.0
aF2.0
aF2.0
aF2.0
aF2.0
aF2.0
aF2.0
aF2.0
aF2.0
aF2.0
aF2.0
aF2.0
aF2.0
aF2.0
aF2.0
aF2.0
aF2.0
aF2.0
aF2.0
aF2.0
aF2.0
aF2.0
aF2.0
aF2.0
aF2.0
aF2.0
aF2.0
aF2.0
aF2.0
aF2.0
aF2.0
aF2.0
aF2.0
aF2.0
aF2.0
aF2.0
aF2.0
aF2.0
aF2.0
aF2.0
aF2.0
aF2.0
aF2.0
aF2.0
aF2.0
aF2.0
aF2.0
aF2.0
aF2.0
aF2.0
aF2.0
aF2.0
aF2.0
aF2.0
aF2.0
aF2.0
aF2.0
aF2.0
aF2.0
aF2.0
aF2.0
aF2.0
aF2.0
aF2.0
aF2.0
aF2.0
aF2.0
aF2.0
aF2.0
aF2.0
aF2.0
aF2.0
aF2.0
aF2.0
aF2.0
aF2.0
aF2.0
aF2.0
aF2.0
aF2.0
aF2.0
aF2.0
aF2.0
aF2.0
aF2.0
aF2.0
aF2.0
aF2.0
aF2.0
aF2.0
aF2.0
aF2.0
aF2.0
aF2.0
aF2.0
aF2.0
aF2.0
aF2.0
aF2.0
aF2.0
aF2.0
aF2.0
aF2.0
aF2.0
aF2.0
aF2.0
aF2.0
aF2.0
aF2.0
aF2.0
aF2.0
aF2.0
aF2.0
aF2.0
aF2.0
aF2.0
aF2.0
aF2.0
aF2.0
aF2.0
aF2.0
aF2.0
aF2.0
aF2.0
aF2.0
aF2.0
aF2.0
aF2.0
aF2.0
aF2.0
aF2.0
aF2.0
aF2.0
aF2.0
aF2.0
aF2.0
aF2.0
aF2.0
aF2.0
aF2.0
aF2.0
aF2.0
aF2.0
aF2.0
aF2.0
aF2.0
aF2.0
aF2.0
aF2.0
aF2.0
aF2.0
aF2.0
aF2.0
aF2.0
aF2.0
aF2.0
aF2.0
aF2.0
aF2.0
aF2.0
aF2.0
aF2.0
aF2.0
aF2.0
aF2.0
aF2.0
aF2.0
aF2.0
aF2.0
aF2.0
aF2.0
aF2.0
aF2.0
aF2.0
aF2.0
aF2.0
aF2.0
aF2.0
aF2.0
aF2.0
aF2.0
aF2.0
aF2.0
aF2.0
aF2.0
aF2.0
aF2.0
aF2.0
aF2.0
aF2.0
aF2.0
aF2.0
aF2.0
aF2.0
aF2.0
aF2.0
aF2.0
aF2.0
aF2.0
aF2.0
aF2.0
aF2.0
aF2.0
aF2.0
aF2.0
aF2.0
aF2.0
aF2.0
aF2.0
aF2.0
aF2.0
aF2.0
aF2.0
aF2.0
aF2.0
aF2.0
aF2.0
aF2.0
aF2.0
aF2.0
aF2.0
aF2.0
aF2.0
aF2.0
aF2.0
aF2.0
aF2.0
aF2.0
aF2.0
aF2.0
aF2.0
aF2.0
aF2.0
aF2.0
aF2.0
aF2.0
aF2.0
aF2.0
aF2.0
aF2.0
aF2.0
aF2.0
asg4
(lp11
F7.7500000001
aF15.2500000001
aF23.0000000001
aF30.5000000001
aF38.0000000001
aF45.5000000001
aF53.0000000001
aF60.5000000001
aF68.0000000001
aF75.5000000001
aF83.0000000001
aF90.0000000001
aF97.7500000001
aF105.2500000001
aF112.7500000001
aF120.0000000001
aF127.5000000001
aF135.0000000001
aF142.5000000001
aF150.0000000001
aF157.5000000001
aF164.7500000001
aF171.7500000001
aF178.7500000001
aF185.7500000001
aF193.0000000001
aF200.5000000001
aF208.0000000001
aF215.5000000001
aF223.0000000001
aF230.5000000001
aF238.0000000001
aF245.2500000001
aF252.2500000001
aF259.5000000001
aF267.0000000001
aF274.5000000001
aF282.0000000001
aF289.5000000001
aF297.0000000001
aF304.5000000001
aF311.2500000001
aF318.2500000001
aF325.2500000001
aF332.7500000001
aF340.0000000001
aF347.7500000001
aF355.2500000001
aF362.5000000001
aF370.0000000001
aF377.5000000001
aF384.5000000001
aF391.5000000001
aF398.7500000001
aF406.2500000001
aF413.7500000001
aF421.2500000001
aF428.7500000001
aF436.2500000001
aF443.7500000001
aF450.7500000001
aF457.7500000001
aF464.7500000001
aF472.0000000001
aF479.5000000001
aF487.0000000001
aF494.5000000001
aF501.5000000001
aF509.0000000001
aF516.5000000001
aF523.5000000001
aF530.5000000001
aF537.7500000001
aF545.2500000001
aF552.7500000001
aF560.2500000001
aF567.7500000001
aF575.2500000001
aF582.5000000001
aF589.5000000001
aF596.5000000001
aF603.5000000001
aF610.7500000001
aF618.2500000001
aF625.7500000001
aF633.2500000001
aF640.2500000001
aF648.0000000001
aF655.2500000001
aF662.2500000001
aF669.2500000001
aF676.5000000001
aF684.0000000001
aF691.5000000001
aF699.0000000001
aF706.5000000001
aF714.0000000001
aF721.2500000001
aF728.2500000001
aF735.2500000001
aF742.2500000001
aF749.7500000001
aF757.2500000001
aF764.7500000001
aF772.2500000001
aF779.0000000001
aF786.7500000001
aF794.0000000001
aF801.0000000001
aF808.0000000001
aF815.2500000001
aF822.7500000001
aF830.2500000001
aF837.7500000001
aF845.2500000001
aF852.7500000001
aF860.2500000001
aF867.2500000001
aF874.0000000001
aF881.2500000001
aF888.5000000001
aF896.0000000001
aF903.5000000001
aF911.0000000001
aF918.0000000001
aF925.5000000001
aF932.7500000001
aF939.7500000001
aF946.7500000001
aF954.0000000001
aF961.5000000001
aF969.0000000001
aF976.5000000001
aF984.0000000001
aF991.5000000001
aF999.0000000001
aF1006.0000000001
aF1013.0000000001
aF1020.0000000001
aF1027.5000000001
aF1035.0000000001
aF1042.5000000001
aF1050.0000000001
aF1056.7500000001
aF1064.5000000001
aF1071.7500000001
aF1078.5000000001
aF1085.5000000001
aF1093.0000000001
aF1100.2500000001
aF1107.7500000001
aF1115.2500000001
aF1122.7500000001
aF1130.2500000001
aF1137.7500000001
aF1144.7500000001
aF1151.7500000001
aF1158.7500000001
aF1166.2500000001
aF1173.7500000001
aF1181.0000000001
aF1188.5000000001
aF1195.5000000001
aF1203.2500000001
aF1210.2500000001
aF1217.2500000001
aF1224.2500000001
aF1231.5000000001
aF1239.0000000001
aF1246.5000000001
aF1254.0000000001
aF1261.5000000001
aF1269.0000000001
aF1276.2500000001
aF1283.2500000001
aF1290.2500000001
aF1297.5000000001
aF1304.7500000001
aF1312.2500000001
aF1319.7500000001
aF1327.2500000001
aF1334.0000000001
aF1341.7500000001
aF1349.0000000001
aF1356.0000000001
aF1363.0000000001
aF1370.2500000001
aF1377.5000000001
aF1385.0000000001
aF1392.5000000001
aF1400.0000000001
aF1407.5000000001
aF1415.0000000001
aF1422.0000000001
aF1429.0000000001
aF1436.2500000001
aF1443.5000000001
aF1451.0000000001
aF1458.5000000001
aF1466.0000000001
aF1472.7500000001
aF1480.5000000001
aF1487.7500000001
aF1494.5000000001
aF1501.7500000001
aF1509.0000000001
aF1516.2500000001
aF1523.7500000001
aF1531.2500000001
aF1538.7500000001
aF1546.2500000001
aF1553.7500000001
aF1560.7500000001
aF1567.7500000001
aF1575.0000000001
aF1582.2500000001
aF1589.7500000001
aF1597.2500000001
aF1604.7500000001
aF1611.7500000001
aF1619.2500000001
aF1626.2500000001
aF1633.2500000001
aF1640.2500000001
aF1647.5000000001
aF1654.7500000001
aF1662.2500000001
aF1669.7500000001
aF1677.2500000001
aF1684.7500000001
aF1692.2500000001
aF1699.2500000001
aF1706.2500000001
aF1713.5000000001
aF1720.7500000001
aF1728.2500000001
aF1735.7500000001
aF1743.2500000001
aF1750.0000000001
aF1757.7500000001
aF1765.0000000001
aF1771.7500000001
aF1779.0000000001
aF1786.2500000001
aF1793.5000000001
aF1801.0000000001
aF1808.5000000001
aF1816.0000000001
aF1823.5000000001
aF1831.0000000001
aF1838.0000000001
aF1845.0000000001
aF1852.2500000001
aF1859.5000000001
aF1867.0000000001
aF1874.5000000001
aF1882.0000000001
aF1889.0000000001
aF1896.5000000001
aF1903.5000000001
aF1910.5000000001
aF1917.5000000001
asa(dp12
g2
(lp13
F3.0
aF3.0
aF3.0
aF3.0
aF3.0
aF3.0
aF3.0
aF3.0
aF3.0
aF3.0
aF3.0
aF3.0
aF3.0
aF3.0
aF3.0
aF3.0
aF3.0
aF3.0
aF3.0
aF3.0
aF3.0
aF3.0
aF3.0
aF3.0
aF3.0
aF3.0
aF3.0
aF3.0
aF3.0
aF3.0
aF3.0
aF3.0
aF3.0
aF3.0
aF3.0
aF3.0
aF3.0
aF3.0
aF3.0
aF3.0
aF3.0
aF3.0
aF3.0
aF3.0
aF3.0
aF3.0
aF3.0
aF3.0
aF3.0
aF3.0
aF3.0
aF3.0
aF3.0
aF3.0
aF3.0
aF3.0
aF3.0
aF3.0
aF3.0
aF3.0
aF3.0
aF3.0
aF3.0
aF3.0
aF3.0
aF3.0
aF3.0
aF3.0
aF3.0
aF3.0
aF3.0
aF3.0
aF3.0
aF3.0
aF3.0
aF3.0
aF3.0
aF3.0
aF3.0
aF3.0
aF3.0
aF3.0
aF3.0
aF3.0
aF3.0
aF3.0
aF3.0
aF3.0
aF3.0
aF3.0
aF3.0
aF3.0
aF3.0
aF3.0
aF3.0
aF3.0
aF3.0
aF3.0
aF3.0
aF3.0
aF3.0
aF3.0
aF3.0
aF3.0
aF3.0
aF3.0
aF3.0
aF3.0
aF3.0
aF3.0
aF3.0
aF3.0
aF3.0
aF3.0
aF3.0
aF3.0
aF3.0
aF3.0
aF3.0
aF3.0
aF3.0
aF3.0
aF3.0
aF3.0
aF3.0
aF3.0
aF3.0
aF3.0
aF3.0
aF3.0
aF3.0
aF3.0
aF3.0
aF3.0
aF3.0
aF3.0
aF3.0
aF3.0
aF3.0
aF3.0
aF3.0
aF3.0
aF3.0
aF3.0
aF3.0
aF3.0
aF3.0
aF3.0
aF3.0
aF3.0
aF3.0
aF3.0
aF3.0
aF3.0
aF3.0
aF3.0
aF3.0
aF3.0
aF3.0
aF3.0
aF3.0
aF3.0
aF3.0
aF3.0
aF3.0
aF3.0
aF3.0
aF3.0
aF3.0
aF3.0
aF3.0
aF3.0
aF3.0
aF3.0
aF3.0
aF3.0
aF3.0
aF3.0
aF3.0
aF3.0
aF3.0
aF3.0
aF3.0
aF3.0
aF3.0
aF3.0
aF3.0
aF3.0
aF3.0
aF3.0
aF3.0
aF3.0
aF3.0
aF3.0
aF3.0
aF3.0
aF3.0
aF3.0
aF3.0
aF3.0
aF3.0
aF3.0
aF3.0
aF3.0
aF3.0
aF3.0
aF3.0
aF3.0
aF3.0
aF3.0
aF3.0
aF3.0
aF3.0
aF3.0
aF3.0
aF3.0
aF3.0
aF3.0
aF3.0
aF3.0
aF3.0
aF3.0
aF3.0
aF3.0
aF3.0
aF3.0
aF3.0
aF3.0
aF3.0
aF3.0
aF3.0
aF3.0
aF3.0
aF3.0
aF3.0
aF3.0
aF3.0
aF3.0
aF3.0
aF3.0
aF3.0
aF3.0
aF3.0
aF3.0
aF3.0
aF3.0
aF3.0
aF3.0
aF3.0
aF3.0
aF3.0
aF3.0
aF3.0
aF3.0
aF3.0
aF3.0
aF3.0
aF3.0
aF3.0
aF3.0
aF3.0
asg4
(lp14
F7.7500000001
aF15.2500000001
aF23.0000000001
aF30.5000000001
aF38.0000000001
aF45.5000000001
aF53.0000000001
aF60.5000000001
aF68.0000000001
aF75.5000000001
aF83.0000000001
aF90.2500000001
aF97.7500000001
aF105.2500000001
aF112.7500000001
aF120.0000000001
aF127.5000000001
aF135.0000000001
aF142.5000000001
aF150.0000000001
aF157.5000000001
aF164.7500000001
aF171.7500000001
aF178.7500000001
aF185.7500000001
aF193.0000000001
aF200.5000000001
aF208.0000000001
aF215.5000000001
aF223.0000000001
aF230.5000000001
aF238.0000000001
aF245.2500000001
aF252.5000000001
aF259.7500000001
aF267.0000000001
aF274.5000000001
aF282.0000000001
aF289.7500000001
aF297.0000000001
aF304.5000000001
aF311.5000000001
aF318.5000000001
aF325.5000000001
aF332.7500000001
aF340.2500000001
aF347.7500000001
aF355.2500000001
aF362.5000000001
aF370.2500000001
aF377.5000000001
aF384.7500000001
aF391.7500000001
aF399.0000000001
aF406.5000000001
aF414.0000000001
aF421.5000000001
aF429.0000000001
aF436.5000000001
aF444.0000000001
aF451.0000000001
aF457.7500000001
aF465.0000000001
aF472.2500000001
aF479.7500000001
aF487.0000000001
aF494.5000000001
aF501.7500000001
aF509.2500000001
aF516.5000000001
aF523.5000000001
aF530.7500000001
aF538.0000000001
aF545.2500000001
aF552.7500000001
aF560.2500000001
aF567.7500000001
aF575.2500000001
aF582.7500000001
aF589.7500000001
aF596.7500000001
aF603.7500000001
aF611.0000000001
aF618.5000000001
aF626.0000000001
aF633.5000000001
aF640.5000000001
aF648.0000000001
aF655.5000000001
aF662.5000000001
aF669.5000000001
aF676.7500000001
aF684.0000000001
aF691.5000000001
aF699.0000000001
aF706.5000000001
aF714.0000000001
aF721.5000000001
aF728.5000000001
aF735.5000000001
aF742.7500000001
aF750.0000000001
aF757.5000000001
aF765.0000000001
aF772.5000000001
aF779.5000000001
aF787.0000000001
aF794.2500000001
aF801.2500000001
aF808.2500000001
aF815.5000000001
aF823.0000000001
aF830.5000000001
aF838.0000000001
aF845.5000000001
aF853.0000000001
aF860.5000000001
aF867.5000000001
aF874.5000000001
aF881.7500000001
aF889.0000000001
aF896.5000000001
aF904.0000000001
aF911.5000000001
aF918.7500000001
aF926.2500000001
aF933.2500000001
aF940.2500000001
aF947.2500000001
aF954.5000000001
aF961.7500000001
aF969.2500000001
aF976.7500000001
aF984.2500000001
aF991.7500000001
aF999.2500000001
aF1006.5000000001
aF1013.5000000001
aF1020.5000000001
aF1028.0000000001
aF1035.2500000001
aF1042.7500000001
aF1050.2500000001
aF1057.7500000001
aF1065.2500000001
aF1072.2500000001
aF1079.2500000001
aF1086.2500000001
aF1093.5000000001
aF1100.7500000001
aF1108.2500000001
aF1115.7500000001
aF1123.2500000001
aF1130.7500000001
aF1138.2500000001
aF1145.5000000001
aF1152.5000000001
aF1159.5000000001
aF1167.0000000001
aF1174.5000000001
aF1181.7500000001
aF1189.2500000001
aF1196.7500000001
aF1204.2500000001
aF1211.2500000001
aF1218.2500000001
aF1225.2500000001
aF1232.5000000001
aF1240.0000000001
aF1247.2500000001
aF1254.7500000001
aF1262.2500000001
aF1269.7500000001
aF1277.2500000001
aF1284.5000000001
aF1291.5000000001
aF1298.7500000001
aF1306.2500000001
aF1313.5000000001
aF1321.0000000001
aF1328.5000000001
aF1336.0000000001
aF1343.5000000001
aF1350.5000000001
aF1357.5000000001
aF1364.5000000001
aF1371.7500000001
aF1379.2500000001
aF1386.7500000001
aF1394.2500000001
aF1401.5000000001
aF1409.2500000001
aF1416.7500000001
aF1423.7500000001
aF1431.0000000001
aF1438.2500000001
aF1445.5000000001
aF1453.0000000001
aF1460.5000000001
aF1468.0000000001
aF1475.5000000001
aF1482.7500000001
aF1489.7500000001
aF1496.7500000001
aF1503.7500000001
aF1511.0000000001
aF1518.5000000001
aF1526.0000000001
aF1533.5000000001
aF1540.7500000001
aF1548.2500000001
aF1555.7500000001
aF1563.0000000001
aF1570.0000000001
aF1577.2500000001
aF1584.7500000001
aF1592.0000000001
aF1599.5000000001
aF1607.0000000001
aF1614.5000000001
aF1622.0000000001
aF1629.0000000001
aF1636.0000000001
aF1643.0000000001
aF1650.2500000001
aF1657.7500000001
aF1665.2500000001
aF1672.7500000001
aF1679.7500000001
aF1687.2500000001
aF1694.7500000001
aF1701.7500000001
aF1709.0000000001
aF1716.2500000001
aF1723.5000000001
aF1731.0000000001
aF1738.5000000001
aF1746.0000000001
aF1753.5000000001
aF1760.7500000001
aF1767.7500000001
aF1774.7500000001
aF1781.7500000001
aF1789.2500000001
aF1796.5000000001
aF1804.0000000001
aF1811.5000000001
aF1818.5000000001
aF1826.2500000001
aF1833.5000000001
aF1840.5000000001
aF1847.7500000001
aF1855.0000000001
aF1862.2500000001
aF1869.7500000001
aF1877.2500000001
aF1884.7500000001
aF1892.2500000001
aF1899.7500000001
aF1906.7500000001
aF1913.5000000001
asa(dp15
g2
(lp16
F4.0
aF4.0
aF4.0
aF4.0
aF4.0
aF4.0
aF4.0
aF4.0
aF4.0
aF4.0
aF4.0
aF4.0
aF4.0
aF4.0
aF4.0
aF4.0
aF4.0
aF4.0
aF4.0
aF4.0
aF4.0
aF4.0
aF4.0
aF4.0
aF4.0
aF4.0
aF4.0
aF4.0
aF4.0
aF4.0
aF4.0
aF4.0
aF4.0
aF4.0
aF4.0
aF4.0
aF4.0
aF4.0
aF4.0
aF4.0
aF4.0
aF4.0
aF4.0
aF4.0
aF4.0
aF4.0
aF4.0
aF4.0
aF4.0
aF4.0
aF4.0
aF4.0
aF4.0
aF4.0
aF4.0
aF4.0
aF4.0
aF4.0
aF4.0
aF4.0
aF4.0
aF4.0
aF4.0
aF4.0
aF4.0
aF4.0
aF4.0
aF4.0
aF4.0
aF4.0
aF4.0
aF4.0
aF4.0
aF4.0
aF4.0
aF4.0
aF4.0
aF4.0
aF4.0
aF4.0
aF4.0
aF4.0
aF4.0
aF4.0
aF4.0
aF4.0
aF4.0
aF4.0
aF4.0
aF4.0
aF4.0
aF4.0
aF4.0
aF4.0
aF4.0
aF4.0
aF4.0
aF4.0
aF4.0
aF4.0
aF4.0
aF4.0
aF4.0
aF4.0
aF4.0
aF4.0
aF4.0
aF4.0
aF4.0
aF4.0
aF4.0
aF4.0
aF4.0
aF4.0
aF4.0
aF4.0
aF4.0
aF4.0
aF4.0
aF4.0
aF4.0
aF4.0
aF4.0
aF4.0
aF4.0
aF4.0
aF4.0
aF4.0
aF4.0
aF4.0
aF4.0
aF4.0
aF4.0
aF4.0
aF4.0
aF4.0
aF4.0
aF4.0
aF4.0
aF4.0
aF4.0
aF4.0
aF4.0
aF4.0
aF4.0
aF4.0
aF4.0
aF4.0
aF4.0
aF4.0
aF4.0
aF4.0
aF4.0
aF4.0
aF4.0
aF4.0
aF4.0
aF4.0
aF4.0
aF4.0
aF4.0
aF4.0
aF4.0
aF4.0
aF4.0
aF4.0
aF4.0
aF4.0
aF4.0
aF4.0
aF4.0
aF4.0
aF4.0
aF4.0
aF4.0
aF4.0
aF4.0
aF4.0
aF4.0
aF4.0
aF4.0
aF4.0
aF4.0
aF4.0
aF4.0
aF4.0
aF4.0
aF4.0
aF4.0
aF4.0
aF4.0
aF4.0
aF4.0
aF4.0
aF4.0
aF4.0
aF4.0
aF4.0
aF4.0
aF4.0
aF4.0
aF4.0
aF4.0
aF4.0
aF4.0
aF4.0
aF4.0
aF4.0
aF4.0
aF4.0
aF4.0
aF4.0
aF4.0
aF4.0
aF4.0
aF4.0
aF4.0
aF4.0
aF4.0
aF4.0
aF4.0
aF4.0
aF4.0
aF4.0
aF4.0
aF4.0
aF4.0
aF4.0
aF4.0
aF4.0
aF4.0
aF4.0
aF4.0
aF4.0
aF4.0
aF4.0
aF4.0
aF4.0
aF4.0
aF4.0
aF4.0
aF4.0
aF4.0
aF4.0
aF4.0
aF4.0
aF4.0
aF4.0
aF4.0
aF4.0
aF4.0
aF4.0
aF4.0
aF4.0
aF4.0
aF4.0
aF4.0
aF4.0
aF4.0
aF4.0
aF4.0
aF4.0
asg4
(lp17
F7.7500000001
aF15.2500000001
aF23.0000000001
aF30.5000000001
aF38.0000000001
aF45.5000000001
aF53.0000000001
aF60.5000000001
aF68.0000000001
aF75.5000000001
aF83.0000000001
aF90.2500000001
aF97.7500000001
aF105.2500000001
aF112.7500000001
aF120.0000000001
aF127.5000000001
aF135.0000000001
aF142.5000000001
aF150.0000000001
aF157.5000000001
aF165.0000000001
aF171.7500000001
aF178.7500000001
aF186.0000000001
aF193.2500000001
aF200.7500000001
aF208.2500000001
aF215.7500000001
aF223.2500000001
aF230.7500000001
aF238.0000000001
aF245.2500000001
aF252.5000000001
aF259.7500000001
aF267.2500000001
aF274.7500000001
aF282.2500000001
aF289.7500000001
aF297.2500000001
aF304.5000000001
aF311.5000000001
aF318.5000000001
aF325.5000000001
aF333.0000000001
aF340.2500000001
aF347.7500000001
aF355.5000000001
aF362.5000000001
aF370.2500000001
aF377.5000000001
aF384.7500000001
aF391.7500000001
aF399.0000000001
aF406.5000000001
aF414.0000000001
aF421.5000000001
aF429.0000000001
aF436.5000000001
aF444.0000000001
aF451.0000000001
aF458.0000000001
aF465.0000000001
aF472.2500000001
aF479.7500000001
aF487.2500000001
aF494.7500000001
aF501.7500000001
aF509.2500000001
aF516.7500000001
aF523.7500000001
aF530.7500000001
aF538.0000000001
aF545.2500000001
aF552.7500000001
aF560.2500000001
aF567.7500000001
aF575.2500000001
aF582.7500000001
aF589.7500000001
aF596.7500000001
aF603.7500000001
aF611.0000000001
aF618.5000000001
aF626.0000000001
aF633.5000000001
aF640.5000000001
aF648.2500000001
aF655.5000000001
aF662.5000000001
aF669.5000000001
aF676.7500000001
aF684.2500000001
aF691.7500000001
aF699.0000000001
aF706.5000000001
aF714.2500000001
aF721.5000000001
aF728.5000000001
aF735.5000000001
aF742.7500000001
aF750.0000000001
aF757.5000000001
aF765.0000000001
aF772.5000000001
aF779.2500000001
aF787.0000000001
aF794.2500000001
aF801.2500000001
aF808.2500000001
aF815.7500000001
aF823.0000000001
aF830.5000000001
aF838.0000000001
aF845.5000000001
aF853.0000000001
aF860.5000000001
aF867.5000000001
aF874.5000000001
aF881.7500000001
aF889.0000000001
aF896.5000000001
aF904.0000000001
aF911.5000000001
aF918.5000000001
aF926.2500000001
aF933.2500000001
aF940.0000000001
aF947.0000000001
aF954.2500000001
aF961.7500000001
aF969.2500000001
aF976.7500000001
aF984.2500000001
aF991.7500000001
aF999.2500000001
aF1006.2500000001
aF1013.2500000001
aF1020.5000000001
aF1027.7500000001
aF1035.2500000001
aF1042.7500000001
aF1050.2500000001
aF1057.2500000001
aF1064.7500000001
aF1072.0000000001
aF1078.7500000001
aF1085.7500000001
aF1093.0000000001
aF1100.5000000001
aF1108.0000000001
aF1115.5000000001
aF1123.0000000001
aF1130.5000000001
aF1138.0000000001
aF1145.0000000001
aF1152.0000000001
aF1159.2500000001
aF1166.5000000001
aF1174.0000000001
aF1181.5000000001
aF1189.0000000001
aF1195.7500000001
aF1203.5000000001
aF1210.5000000001
aF1217.5000000001
aF1224.5000000001
aF1231.7500000001
aF1239.2500000001
aF1246.7500000001
aF1254.0000000001
aF1261.5000000001
aF1269.2500000001
aF1276.5000000001
aF1283.5000000001
aF1290.5000000001
aF1297.7500000001
aF1305.0000000001
aF1312.5000000001
aF1320.0000000001
aF1327.5000000001
aF1334.7500000001
aF1342.2500000001
aF1349.2500000001
aF1356.0000000001
aF1363.0000000001
aF1370.2500000001
aF1377.7500000001
aF1385.2500000001
aF1392.7500000001
aF1400.2500000001
aF1407.7500000001
aF1415.0000000001
aF1422.2500000001
aF1429.2500000001
aF1436.2500000001
aF1443.7500000001
aF1451.0000000001
aF1458.5000000001
aF1466.0000000001
aF1473.0000000001
aF1480.7500000001
aF1487.7500000001
aF1494.7500000001
aF1501.7500000001
aF1509.0000000001
aF1516.5000000001
aF1524.0000000001
aF1531.5000000001
aF1539.0000000001
aF1546.5000000001
aF1553.7500000001
aF1561.0000000001
aF1568.0000000001
aF1575.0000000001
aF1582.5000000001
aF1589.7500000001
aF1597.2500000001
aF1604.7500000001
aF1612.2500000001
aF1619.5000000001
aF1626.5000000001
aF1633.5000000001
aF1640.5000000001
aF1647.7500000001
aF1655.2500000001
aF1662.5000000001
aF1670.0000000001
aF1677.5000000001
aF1685.0000000001
aF1692.5000000001
aF1699.5000000001
aF1706.7500000001
aF1713.7500000001
aF1721.2500000001
aF1728.5000000001
aF1736.0000000001
aF1743.5000000001
aF1751.0000000001
aF1758.2500000001
aF1765.2500000001
aF1772.2500000001
aF1779.2500000001
aF1786.5000000001
aF1793.7500000001
aF1801.2500000001
aF1808.7500000001
aF1816.2500000001
aF1823.7500000001
aF1831.2500000001
aF1838.2500000001
aF1845.2500000001
aF1852.5000000001
aF1859.7500000001
aF1867.2500000001
aF1874.7500000001
aF1882.2500000001
aF1889.7500000001
aF1897.0000000001
aF1904.0000000001
aF1911.0000000001
aF1918.0000000001
asa(dp18
g2
(lp19
F5.0
aF5.0
aF5.0
aF5.0
aF5.0
aF5.0
aF5.0
aF5.0
aF5.0
aF5.0
aF5.0
aF5.0
aF5.0
aF5.0
aF5.0
aF5.0
aF5.0
aF5.0
aF5.0
aF5.0
aF5.0
aF5.0
aF5.0
aF5.0
aF5.0
aF5.0
aF5.0
aF5.0
aF5.0
aF5.0
aF5.0
aF5.0
aF5.0
aF5.0
aF5.0
aF5.0
aF5.0
aF5.0
aF5.0
aF5.0
aF5.0
aF5.0
aF5.0
aF5.0
aF5.0
aF5.0
aF5.0
aF5.0
aF5.0
aF5.0
aF5.0
aF5.0
aF5.0
aF5.0
aF5.0
aF5.0
aF5.0
aF5.0
aF5.0
aF5.0
aF5.0
aF5.0
aF5.0
aF5.0
aF5.0
aF5.0
aF5.0
aF5.0
aF5.0
aF5.0
aF5.0
aF5.0
aF5.0
aF5.0
aF5.0
aF5.0
aF5.0
aF5.0
aF5.0
aF5.0
aF5.0
aF5.0
aF5.0
aF5.0
aF5.0
aF5.0
aF5.0
aF5.0
aF5.0
aF5.0
aF5.0
aF5.0
aF5.0
aF5.0
aF5.0
aF5.0
aF5.0
aF5.0
aF5.0
aF5.0
aF5.0
aF5.0
aF5.0
aF5.0
aF5.0
aF5.0
aF5.0
aF5.0
aF5.0
aF5.0
aF5.0
aF5.0
aF5.0
aF5.0
aF5.0
aF5.0
aF5.0
aF5.0
aF5.0
aF5.0
aF5.0
aF5.0
aF5.0
aF5.0
aF5.0
aF5.0
aF5.0
aF5.0
aF5.0
aF5.0
aF5.0
aF5.0
aF5.0
aF5.0
aF5.0
aF5.0
aF5.0
aF5.0
aF5.0
aF5.0
aF5.0
aF5.0
aF5.0
aF5.0
aF5.0
aF5.0
aF5.0
aF5.0
aF5.0
aF5.0
aF5.0
aF5.0
aF5.0
aF5.0
aF5.0
aF5.0
aF5.0
aF5.0
aF5.0
aF5.0
aF5.0
aF5.0
aF5.0
aF5.0
aF5.0
aF5.0
aF5.0
aF5.0
aF5.0
aF5.0
aF5.0
aF5.0
aF5.0
aF5.0
aF5.0
aF5.0
aF5.0
aF5.0
aF5.0
aF5.0
aF5.0
aF5.0
aF5.0
aF5.0
aF5.0
aF5.0
aF5.0
aF5.0
aF5.0
aF5.0
aF5.0
aF5.0
aF5.0
aF5.0
aF5.0
aF5.0
aF5.0
aF5.0
aF5.0
aF5.0
aF5.0
aF5.0
aF5.0
aF5.0
aF5.0
aF5.0
aF5.0
aF5.0
aF5.0
aF5.0
aF5.0
aF5.0
aF5.0
aF5.0
aF5.0
aF5.0
aF5.0
aF5.0
aF5.0
aF5.0
aF5.0
aF5.0
aF5.0
aF5.0
aF5.0
aF5.0
aF5.0
aF5.0
aF5.0
aF5.0
aF5.0
aF5.0
aF5.0
aF5.0
aF5.0
aF5.0
aF5.0
aF5.0
aF5.0
aF5.0
aF5.0
aF5.0
aF5.0
aF5.0
aF5.0
aF5.0
aF5.0
aF5.0
aF5.0
aF5.0
aF5.0
aF5.0
aF5.0
aF5.0
aF5.0
aF5.0
aF5.0
aF5.0
aF5.0
aF5.0
aF5.0
asg4
(lp20
F7.7500000001
aF15.2500000001
aF23.0000000001
aF30.5000000001
aF38.0000000001
aF45.5000000001
aF53.0000000001
aF60.5000000001
aF68.0000000001
aF75.5000000001
aF83.0000000001
aF90.0000000001
aF97.7500000001
aF105.2500000001
aF112.5000000001
aF120.0000000001
aF127.5000000001
aF135.0000000001
aF142.5000000001
aF150.0000000001
aF157.5000000001
aF164.7500000001
aF171.7500000001
aF178.7500000001
aF185.7500000001
aF193.2500000001
aF200.7500000001
aF208.2500000001
aF215.7500000001
aF223.2500000001
aF230.7500000001
aF238.2500000001
aF245.2500000001
aF252.5000000001
aF259.7500000001
aF267.2500000001
aF274.7500000001
aF282.2500000001
aF289.7500000001
aF297.5000000001
aF304.7500000001
aF311.5000000001
aF318.5000000001
aF325.7500000001
aF333.0000000001
aF340.5000000001
aF348.0000000001
aF355.7500000001
aF362.5000000001
aF370.5000000001
aF377.7500000001
aF384.5000000001
aF391.7500000001
aF399.0000000001
aF406.5000000001
aF414.0000000001
aF421.5000000001
aF429.2500000001
aF436.7500000001
aF444.0000000001
aF451.0000000001
aF458.0000000001
aF465.0000000001
aF472.2500000001
aF479.7500000001
aF487.2500000001
aF494.7500000001
aF501.7500000001
aF509.5000000001
aF516.7500000001
aF523.5000000001
aF530.7500000001
aF538.0000000001
aF545.2500000001
aF552.7500000001
aF560.2500000001
aF568.0000000001
aF575.5000000001
aF582.7500000001
aF589.7500000001
aF596.7500000001
aF603.7500000001
aF611.2500000001
aF618.7500000001
aF626.2500000001
aF633.7500000001
aF640.5000000001
aF648.2500000001
aF655.5000000001
aF662.5000000001
aF669.5000000001
aF676.7500000001
aF684.2500000001
aF691.7500000001
aF699.2500000001
aF706.7500000001
aF714.2500000001
aF721.7500000001
aF728.5000000001
aF735.5000000001
aF742.7500000001
aF750.2500000001
aF757.7500000001
aF765.2500000001
aF772.7500000001
aF779.5000000001
aF787.5000000001
aF794.5000000001
aF801.2500000001
aF808.2500000001
aF815.7500000001
aF823.0000000001
aF830.7500000001
aF838.2500000001
aF845.7500000001
aF853.2500000001
aF860.7500000001
aF867.5000000001
aF874.5000000001
aF881.7500000001
aF889.2500000001
aF896.7500000001
aF904.2500000001
aF911.7500000001
aF919.2500000001
aF926.5000000001
aF933.5000000001
aF940.7500000001
aF947.7500000001
aF955.0000000001
aF962.2500000001
aF970.0000000001
aF977.5000000001
aF985.0000000001
aF992.5000000001
aF1000.0000000001
aF1007.0000000001
aF1014.0000000001
aF1021.2500000001
aF1028.7500000001
aF1036.2500000001
aF1043.7500000001
aF1051.2500000001
aF1058.7500000001
aF1066.0000000001
aF1073.0000000001
aF1080.2500000001
aF1087.2500000001
aF1094.5000000001
aF1102.0000000001
aF1109.5000000001
aF1117.0000000001
aF1124.5000000001
aF1132.0000000001
aF1139.5000000001
aF1146.5000000001
aF1153.5000000001
aF1160.7500000001
aF1168.2500000001
aF1175.7500000001
aF1183.2500000001
aF1190.7500000001
aF1198.5000000001
aF1205.5000000001
aF1212.5000000001
aF1219.5000000001
aF1226.7500000001
aF1234.0000000001
aF1241.5000000001
aF1249.0000000001
aF1256.5000000001
aF1263.5000000001
aF1271.2500000001
aF1278.7500000001
aF1285.7500000001
aF1292.7500000001
aF1300.0000000001
aF1307.5000000001
aF1315.0000000001
aF1322.5000000001
aF1330.0000000001
aF1337.5000000001
aF1344.7500000001
aF1351.7500000001
aF1358.7500000001
aF1365.7500000001
aF1373.2500000001
aF1380.5000000001
aF1388.0000000001
aF1395.7500000001
aF1402.5000000001
aF1410.2500000001
aF1417.5000000001
aF1424.5000000001
aF1431.5000000001
aF1438.7500000001
aF1446.2500000001
aF1453.7500000001
aF1461.2500000001
aF1468.7500000001
aF1476.5000000001
aF1483.7500000001
aF1490.5000000001
aF1497.5000000001
aF1504.7500000001
aF1512.0000000001
aF1519.5000000001
aF1527.0000000001
aF1534.5000000001
aF1541.2500000001
aF1549.2500000001
aF1556.5000000001
aF1563.2500000001
aF1570.5000000001
aF1577.7500000001
aF1585.0000000001
aF1592.5000000001
aF1600.2500000001
aF1607.7500000001
aF1615.2500000001
aF1622.5000000001
aF1629.5000000001
aF1636.5000000001
aF1643.5000000001
aF1651.0000000001
aF1658.5000000001
aF1666.0000000001
aF1673.5000000001
aF1680.2500000001
aF1688.0000000001
aF1695.2500000001
aF1702.2500000001
aF1709.2500000001
aF1716.5000000001
aF1724.0000000001
aF1731.5000000001
aF1739.0000000001
aF1746.5000000001
aF1754.0000000001
aF1761.2500000001
aF1768.2500000001
aF1775.2500000001
aF1782.2500000001
aF1789.7500000001
aF1797.2500000001
aF1804.7500000001
aF1812.2500000001
aF1819.0000000001
aF1826.7500000001
aF1834.0000000001
aF1841.0000000001
aF1848.0000000001
aF1855.2500000001
aF1862.7500000001
aF1870.2500000001
aF1877.7500000001
aF1885.2500000001
aF1892.7500000001
aF1900.0000000001
aF1907.0000000001
aF1914.0000000001
asa(dp21
g2
(lp22
F6.0
aF6.0
aF6.0
aF6.0
aF6.0
aF6.0
aF6.0
aF6.0
aF6.0
aF6.0
aF6.0
aF6.0
aF6.0
aF6.0
aF6.0
aF6.0
aF6.0
aF6.0
aF6.0
aF6.0
aF6.0
aF6.0
aF6.0
aF6.0
aF6.0
aF6.0
aF6.0
aF6.0
aF6.0
aF6.0
aF6.0
aF6.0
aF6.0
aF6.0
aF6.0
aF6.0
aF6.0
aF6.0
aF6.0
aF6.0
aF6.0
aF6.0
aF6.0
aF6.0
aF6.0
aF6.0
aF6.0
aF6.0
aF6.0
aF6.0
aF6.0
aF6.0
aF6.0
aF6.0
aF6.0
aF6.0
aF6.0
aF6.0
aF6.0
aF6.0
aF6.0
aF6.0
aF6.0
aF6.0
aF6.0
aF6.0
aF6.0
aF6.0
aF6.0
aF6.0
aF6.0
aF6.0
aF6.0
aF6.0
aF6.0
aF6.0
aF6.0
aF6.0
aF6.0
aF6.0
aF6.0
aF6.0
aF6.0
aF6.0
aF6.0
aF6.0
aF6.0
aF6.0
aF6.0
aF6.0
aF6.0
aF6.0
aF6.0
aF6.0
aF6.0
aF6.0
aF6.0
aF6.0
aF6.0
aF6.0
aF6.0
aF6.0
aF6.0
aF6.0
aF6.0
aF6.0
aF6.0
aF6.0
aF6.0
aF6.0
aF6.0
aF6.0
aF6.0
aF6.0
aF6.0
aF6.0
aF6.0
aF6.0
aF6.0
aF6.0
aF6.0
aF6.0
aF6.0
aF6.0
aF6.0
aF6.0
aF6.0
aF6.0
aF6.0
aF6.0
aF6.0
aF6.0
aF6.0
aF6.0
aF6.0
aF6.0
aF6.0
aF6.0
aF6.0
aF6.0
aF6.0
aF6.0
aF6.0
aF6.0
aF6.0
aF6.0
aF6.0
aF6.0
aF6.0
aF6.0
aF6.0
aF6.0
aF6.0
aF6.0
aF6.0
aF6.0
aF6.0
aF6.0
aF6.0
aF6.0
aF6.0
aF6.0
aF6.0
aF6.0
aF6.0
aF6.0
aF6.0
aF6.0
aF6.0
aF6.0
aF6.0
aF6.0
aF6.0
aF6.0
aF6.0
aF6.0
aF6.0
aF6.0
aF6.0
aF6.0
aF6.0
aF6.0
aF6.0
aF6.0
aF6.0
aF6.0
aF6.0
aF6.0
aF6.0
aF6.0
aF6.0
aF6.0
aF6.0
aF6.0
aF6.0
aF6.0
aF6.0
aF6.0
aF6.0
aF6.0
aF6.0
aF6.0
aF6.0
aF6.0
aF6.0
aF6.0
aF6.0
aF6.0
aF6.0
aF6.0
aF6.0
aF6.0
aF6.0
aF6.0
aF6.0
aF6.0
aF6.0
aF6.0
aF6.0
aF6.0
aF6.0
aF6.0
aF6.0
aF6.0
aF6.0
aF6.0
aF6.0
aF6.0
aF6.0
aF6.0
aF6.0
aF6.0
aF6.0
aF6.0
aF6.0
aF6.0
aF6.0
aF6.0
aF6.0
aF6.0
aF6.0
aF6.0
aF6.0
aF6.0
aF6.0
aF6.0
aF6.0
aF6.0
aF6.0
aF6.0
aF6.0
aF6.0
aF6.0
aF6.0
aF6.0
aF6.0
aF6.0
aF6.0
aF6.0
aF6.0
aF6.0
asg4
(lp23
F7.7500000001
aF15.2500000001
aF23.0000000001
aF30.5000000001
aF38.0000000001
aF45.5000000001
aF53.0000000001
aF60.5000000001
aF68.0000000001
aF75.5000000001
aF83.0000000001
aF90.0000000001
aF97.7500000001
aF105.2500000001
aF112.7500000001
aF120.0000000001
aF127.5000000001
aF135.0000000001
aF142.5000000001
aF150.0000000001
aF157.5000000001
aF164.7500000001
aF171.7500000001
aF179.0000000001
aF186.0000000001
aF193.2500000001
aF200.7500000001
aF208.5000000001
aF216.0000000001
aF223.2500000001
aF231.0000000001
aF238.2500000001
aF245.5000000001
aF252.5000000001
aF259.7500000001
aF267.2500000001
aF274.7500000001
aF282.5000000001
aF290.0000000001
aF297.5000000001
aF304.7500000001
aF311.7500000001
aF318.7500000001
aF325.7500000001
aF333.2500000001
aF340.7500000001
aF348.2500000001
aF355.7500000001
aF362.7500000001
aF370.5000000001
aF377.7500000001
aF384.7500000001
aF391.7500000001
aF399.2500000001
aF406.7500000001
aF414.2500000001
aF421.7500000001
aF429.2500000001
aF436.7500000001
aF444.2500000001
aF451.2500000001
aF458.0000000001
aF465.2500000001
aF472.5000000001
aF480.0000000001
aF487.5000000001
aF495.0000000001
aF502.0000000001
aF509.7500000001
aF516.7500000001
aF523.7500000001
aF530.7500000001
aF538.0000000001
aF545.5000000001
aF553.0000000001
aF560.5000000001
aF568.0000000001
aF575.7500000001
aF583.0000000001
aF590.0000000001
aF597.0000000001
aF604.2500000001
aF611.5000000001
aF619.0000000001
aF626.5000000001
aF634.0000000001
aF641.0000000001
aF648.7500000001
aF655.7500000001
aF662.7500000001
aF669.7500000001
aF677.0000000001
aF684.5000000001
aF692.0000000001
aF699.5000000001
aF707.0000000001
aF714.5000000001
aF722.0000000001
aF729.0000000001
aF736.0000000001
aF743.2500000001
aF750.5000000001
aF758.0000000001
aF765.5000000001
aF773.0000000001
aF780.5000000001
aF787.7500000001
aF794.7500000001
aF802.0000000001
aF809.0000000001
aF816.2500000001
aF823.7500000001
aF831.2500000001
aF838.7500000001
aF846.2500000001
aF853.7500000001
aF861.2500000001
aF868.5000000001
aF875.5000000001
aF882.7500000001
aF890.2500000001
aF897.5000000001
aF905.2500000001
aF912.7500000001
aF920.2500000001
aF927.5000000001
aF934.5000000001
aF941.5000000001
aF948.5000000001
aF955.7500000001
aF963.2500000001
aF970.7500000001
aF978.2500000001
aF985.7500000001
aF993.5000000001
aF1000.7500000001
aF1008.0000000001
aF1015.0000000001
aF1022.2500000001
aF1029.7500000001
aF1037.2500000001
aF1044.7500000001
aF1052.2500000001
aF1059.7500000001
aF1067.0000000001
aF1074.0000000001
aF1081.0000000001
aF1088.0000000001
aF1095.5000000001
aF1102.7500000001
aF1110.5000000001
aF1118.0000000001
aF1125.0000000001
aF1132.7500000001
aF1140.0000000001
aF1147.0000000001
aF1154.2500000001
aF1161.5000000001
aF1168.7500000001
aF1176.2500000001
aF1183.7500000001
aF1191.2500000001
aF1199.0000000001
aF1206.2500000001
aF1213.0000000001
aF1220.0000000001
aF1227.0000000001
aF1234.5000000001
aF1241.7500000001
aF1249.2500000001
aF1256.7500000001
aF1264.0000000001
aF1271.7500000001
aF1279.0000000001
aF1286.0000000001
aF1293.0000000001
aF1300.2500000001
aF1307.7500000001
aF1315.2500000001
aF1322.7500000001
aF1330.2500000001
aF1337.7500000001
aF1345.2500000001
aF1352.0000000001
aF1359.0000000001
aF1366.2500000001
aF1373.5000000001
aF1381.0000000001
aF1388.5000000001
aF1396.0000000001
aF1402.7500000001
aF1410.7500000001
aF1417.7500000001
aF1424.7500000001
aF1432.0000000001
aF1439.2500000001
aF1446.5000000001
aF1454.0000000001
aF1461.5000000001
aF1469.2500000001
aF1476.7500000001
aF1484.0000000001
aF1491.0000000001
aF1498.0000000001
aF1505.2500000001
aF1512.5000000001
aF1520.0000000001
aF1527.5000000001
aF1535.0000000001
aF1541.7500000001
aF1549.5000000001
aF1556.7500000001
aF1563.7500000001
aF1570.7500000001
aF1578.0000000001
aF1585.5000000001
aF1593.0000000001
aF1600.5000000001
aF1608.0000000001
aF1615.5000000001
aF1623.0000000001
aF1630.0000000001
aF1637.0000000001
aF1644.0000000001
aF1651.5000000001
aF1659.0000000001
aF1666.5000000001
aF1674.0000000001
aF1681.2500000001
aF1688.7500000001
aF1695.5000000001
aF1702.7500000001
aF1709.7500000001
aF1717.0000000001
aF1724.5000000001
aF1732.0000000001
aF1739.5000000001
aF1747.0000000001
aF1754.5000000001
aF1762.0000000001
aF1769.0000000001
aF1776.0000000001
aF1783.2500000001
aF1790.5000000001
aF1798.0000000001
aF1805.5000000001
aF1813.0000000001
aF1820.5000000001
aF1827.7500000001
aF1834.7500000001
aF1841.7500000001
aF1849.0000000001
aF1856.2500000001
aF1863.5000000001
aF1871.0000000001
aF1878.5000000001
aF1886.0000000001
aF1893.7500000001
aF1901.0000000001
aF1908.2500000001
aF1915.2500000001
asa(dp24
g2
(lp25
F7.0
aF7.0
aF7.0
aF7.0
aF7.0
aF7.0
aF7.0
aF7.0
aF7.0
aF7.0
aF7.0
aF7.0
aF7.0
aF7.0
aF7.0
aF7.0
aF7.0
aF7.0
aF7.0
aF7.0
aF7.0
aF7.0
aF7.0
aF7.0
aF7.0
aF7.0
aF7.0
aF7.0
aF7.0
aF7.0
aF7.0
aF7.0
aF7.0
aF7.0
aF7.0
aF7.0
aF7.0
aF7.0
aF7.0
aF7.0
aF7.0
aF7.0
aF7.0
aF7.0
aF7.0
aF7.0
aF7.0
aF7.0
aF7.0
aF7.0
aF7.0
aF7.0
aF7.0
aF7.0
aF7.0
aF7.0
aF7.0
aF7.0
aF7.0
aF7.0
aF7.0
aF7.0
aF7.0
aF7.0
aF7.0
aF7.0
aF7.0
aF7.0
aF7.0
aF7.0
aF7.0
aF7.0
aF7.0
aF7.0
aF7.0
aF7.0
aF7.0
aF7.0
aF7.0
aF7.0
aF7.0
aF7.0
aF7.0
aF7.0
aF7.0
aF7.0
aF7.0
aF7.0
aF7.0
aF7.0
aF7.0
aF7.0
aF7.0
aF7.0
aF7.0
aF7.0
aF7.0
aF7.0
aF7.0
aF7.0
aF7.0
aF7.0
aF7.0
aF7.0
aF7.0
aF7.0
aF7.0
aF7.0
aF7.0
aF7.0
aF7.0
aF7.0
aF7.0
aF7.0
aF7.0
aF7.0
aF7.0
aF7.0
aF7.0
aF7.0
aF7.0
aF7.0
aF7.0
aF7.0
aF7.0
aF7.0
aF7.0
aF7.0
aF7.0
aF7.0
aF7.0
aF7.0
aF7.0
aF7.0
aF7.0
aF7.0
aF7.0
aF7.0
aF7.0
aF7.0
aF7.0
aF7.0
aF7.0
aF7.0
aF7.0
aF7.0
aF7.0
aF7.0
aF7.0
aF7.0
aF7.0
aF7.0
aF7.0
aF7.0
aF7.0
aF7.0
aF7.0
aF7.0
aF7.0
aF7.0
aF7.0
aF7.0
aF7.0
aF7.0
aF7.0
aF7.0
aF7.0
aF7.0
aF7.0
aF7.0
aF7.0
aF7.0
aF7.0
aF7.0
aF7.0
aF7.0
aF7.0
aF7.0
aF7.0
aF7.0
aF7.0
aF7.0
aF7.0
aF7.0
aF7.0
aF7.0
aF7.0
aF7.0
aF7.0
aF7.0
aF7.0
aF7.0
aF7.0
aF7.0
aF7.0
aF7.0
aF7.0
aF7.0
aF7.0
aF7.0
aF7.0
aF7.0
aF7.0
aF7.0
aF7.0
aF7.0
aF7.0
aF7.0
aF7.0
aF7.0
aF7.0
aF7.0
aF7.0
aF7.0
aF7.0
aF7.0
aF7.0
aF7.0
aF7.0
aF7.0
aF7.0
aF7.0
aF7.0
aF7.0
aF7.0
aF7.0
aF7.0
aF7.0
aF7.0
aF7.0
aF7.0
aF7.0
aF7.0
aF7.0
aF7.0
aF7.0
aF7.0
aF7.0
aF7.0
aF7.0
aF7.0
aF7.0
aF7.0
aF7.0
aF7.0
aF7.0
aF7.0
aF7.0
aF7.0
aF7.0
aF7.0
aF7.0
aF7.0
aF7.0
aF7.0
aF7.0
aF7.0
aF7.0
aF7.0
aF7.0
aF7.0
asg4
(lp26
F7.7500000001
aF15.2500000001
aF23.0000000001
aF30.5000000001
aF38.0000000001
aF45.5000000001
aF53.0000000001
aF60.5000000001
aF68.0000000001
aF75.5000000001
aF83.0000000001
aF90.2500000001
aF97.7500000001
aF105.2500000001
aF112.7500000001
aF120.0000000001
aF127.5000000001
aF135.0000000001
aF142.5000000001
aF150.0000000001
aF157.5000000001
aF165.0000000001
aF172.0000000001
aF179.0000000001
aF186.0000000001
aF193.5000000001
aF201.0000000001
aF208.5000000001
aF216.0000000001
aF223.5000000001
aF231.0000000001
aF238.5000000001
aF245.5000000001
aF252.7500000001
aF260.0000000001
aF267.5000000001
aF275.0000000001
aF282.5000000001
aF290.0000000001
aF297.5000000001
aF305.0000000001
aF311.7500000001
aF318.7500000001
aF326.0000000001
aF333.2500000001
aF340.7500000001
aF348.2500000001
aF356.0000000001
aF363.0000000001
aF370.5000000001
aF378.0000000001
aF385.0000000001
aF392.0000000001
aF399.2500000001
aF406.7500000001
aF414.2500000001
aF421.7500000001
aF429.2500000001
aF436.7500000001
aF444.2500000001
aF451.2500000001
aF458.2500000001
aF465.5000000001
aF472.7500000001
aF480.2500000001
aF487.5000000001
aF495.2500000001
aF502.0000000001
aF509.7500000001
aF517.0000000001
aF524.0000000001
aF531.0000000001
aF538.2500000001
aF545.7500000001
aF553.2500000001
aF560.7500000001
aF568.2500000001
aF575.7500000001
aF583.0000000001
aF590.0000000001
aF597.0000000001
aF604.2500000001
aF611.7500000001
aF619.0000000001
aF626.5000000001
aF634.0000000001
aF641.2500000001
aF648.7500000001
aF655.7500000001
aF662.7500000001
aF669.7500000001
aF677.0000000001
aF684.5000000001
aF692.0000000001
aF699.5000000001
aF707.0000000001
aF714.5000000001
aF722.0000000001
aF729.0000000001
aF736.0000000001
aF743.2500000001
aF750.7500000001
aF758.0000000001
aF765.5000000001
aF773.2500000001
aF780.5000000001
aF788.0000000001
aF795.0000000001
aF802.0000000001
aF809.2500000001
aF816.5000000001
aF823.7500000001
aF831.2500000001
aF838.7500000001
aF846.2500000001
aF853.7500000001
aF861.2500000001
aF868.5000000001
aF875.5000000001
aF882.7500000001
aF890.2500000001
aF897.7500000001
aF905.2500000001
aF912.7500000001
aF920.2500000001
aF927.5000000001
aF934.5000000001
aF941.7500000001
aF949.0000000001
aF956.2500000001
aF963.7500000001
aF971.2500000001
aF978.7500000001
aF986.0000000001
aF993.7500000001
aF1001.2500000001
aF1008.2500000001
aF1015.2500000001
aF1022.5000000001
aF1030.0000000001
aF1037.5000000001
aF1045.0000000001
aF1052.5000000001
aF1060.0000000001
aF1067.5000000001
aF1074.2500000001
aF1081.2500000001
aF1088.5000000001
aF1095.7500000001
aF1103.2500000001
aF1110.7500000001
aF1118.2500000001
aF1125.2500000001
aF1133.0000000001
aF1140.2500000001
aF1147.2500000001
aF1154.2500000001
aF1161.5000000001
aF1169.0000000001
aF1176.5000000001
aF1184.0000000001
aF1191.5000000001
aF1199.0000000001
aF1206.5000000001
aF1213.2500000001
aF1220.2500000001
aF1227.5000000001
aF1234.7500000001
aF1242.0000000001
aF1249.5000000001
aF1257.0000000001
aF1264.0000000001
aF1271.7500000001
aF1279.2500000001
aF1286.2500000001
aF1293.2500000001
aF1300.5000000001
aF1307.7500000001
aF1315.2500000001
aF1322.7500000001
aF1330.2500000001
aF1338.0000000001
aF1345.2500000001
aF1352.2500000001
aF1359.2500000001
aF1366.5000000001
aF1373.7500000001
aF1381.2500000001
aF1388.7500000001
aF1396.2500000001
aF1403.0000000001
aF1410.7500000001
aF1418.0000000001
aF1425.0000000001
aF1432.0000000001
aF1439.2500000001
aF1446.7500000001
aF1454.2500000001
aF1461.7500000001
aF1469.2500000001
aF1476.7500000001
aF1484.2500000001
aF1491.2500000001
aF1498.2500000001
aF1505.2500000001
aF1512.7500000001
aF1520.2500000001
aF1527.7500000001
aF1535.2500000001
aF1542.0000000001
aF1549.7500000001
aF1557.0000000001
aF1564.0000000001
aF1571.0000000001
aF1578.2500000001
aF1585.7500000001
aF1593.0000000001
aF1600.5000000001
aF1608.2500000001
aF1615.7500000001
aF1623.0000000001
aF1630.2500000001
aF1637.2500000001
aF1644.2500000001
aF1651.7500000001
aF1659.0000000001
aF1666.5000000001
aF1674.0000000001
aF1681.5000000001
aF1689.0000000001
aF1696.0000000001
aF1703.0000000001
aF1710.0000000001
aF1717.2500000001
aF1724.7500000001
aF1732.2500000001
aF1739.7500000001
aF1747.2500000001
aF1754.7500000001
aF1762.2500000001
aF1769.2500000001
aF1776.2500000001
aF1783.5000000001
aF1790.7500000001
aF1798.2500000001
aF1805.7500000001
aF1813.2500000001
aF1820.7500000001
aF1828.2500000001
aF1835.2500000001
aF1842.2500000001
aF1849.5000000001
aF1856.7500000001
aF1864.0000000001
aF1871.5000000001
aF1879.0000000001
aF1886.5000000001
aF1894.0000000001
aF1901.5000000001
aF1908.7500000001
aF1915.7500000001
asa(dp27
g2
(lp28
F8.0
aF8.0
aF8.0
aF8.0
aF8.0
aF8.0
aF8.0
aF8.0
aF8.0
aF8.0
aF8.0
aF8.0
aF8.0
aF8.0
aF8.0
aF8.0
aF8.0
aF8.0
aF8.0
aF8.0
aF8.0
aF8.0
aF8.0
aF8.0
aF8.0
aF8.0
aF8.0
aF8.0
aF8.0
aF8.0
aF8.0
aF8.0
aF8.0
aF8.0
aF8.0
aF8.0
aF8.0
aF8.0
aF8.0
aF8.0
aF8.0
aF8.0
aF8.0
aF8.0
aF8.0
aF8.0
aF8.0
aF8.0
aF8.0
aF8.0
aF8.0
aF8.0
aF8.0
aF8.0
aF8.0
aF8.0
aF8.0
aF8.0
aF8.0
aF8.0
aF8.0
aF8.0
aF8.0
aF8.0
aF8.0
aF8.0
aF8.0
aF8.0
aF8.0
aF8.0
aF8.0
aF8.0
aF8.0
aF8.0
aF8.0
aF8.0
aF8.0
aF8.0
aF8.0
aF8.0
aF8.0
aF8.0
aF8.0
aF8.0
aF8.0
aF8.0
aF8.0
aF8.0
aF8.0
aF8.0
aF8.0
aF8.0
aF8.0
aF8.0
aF8.0
aF8.0
aF8.0
aF8.0
aF8.0
aF8.0
aF8.0
aF8.0
aF8.0
aF8.0
aF8.0
aF8.0
aF8.0
aF8.0
aF8.0
aF8.0
aF8.0
aF8.0
aF8.0
aF8.0
aF8.0
aF8.0
aF8.0
aF8.0
aF8.0
aF8.0
aF8.0
aF8.0
aF8.0
aF8.0
aF8.0
aF8.0
aF8.0
aF8.0
aF8.0
aF8.0
aF8.0
aF8.0
aF8.0
aF8.0
aF8.0
aF8.0
aF8.0
aF8.0
aF8.0
aF8.0
aF8.0
aF8.0
aF8.0
aF8.0
aF8.0
aF8.0
aF8.0
aF8.0
aF8.0
aF8.0
aF8.0
aF8.0
aF8.0
aF8.0
aF8.0
aF8.0
aF8.0
aF8.0
aF8.0
aF8.0
aF8.0
aF8.0
aF8.0
aF8.0
aF8.0
aF8.0
aF8.0
aF8.0
aF8.0
aF8.0
aF8.0
aF8.0
aF8.0
aF8.0
aF8.0
aF8.0
aF8.0
aF8.0
aF8.0
aF8.0
aF8.0
aF8.0
aF8.0
aF8.0
aF8.0
aF8.0
aF8.0
aF8.0
aF8.0
aF8.0
aF8.0
aF8.0
aF8.0
aF8.0
aF8.0
aF8.0
aF8.0
aF8.0
aF8.0
aF8.0
aF8.0
aF8.0
aF8.0
aF8.0
aF8.0
aF8.0
aF8.0
aF8.0
aF8.0
aF8.0
aF8.0
aF8.0
aF8.0
aF8.0
aF8.0
aF8.0
aF8.0
aF8.0
aF8.0
aF8.0
aF8.0
aF8.0
aF8.0
aF8.0
aF8.0
aF8.0
aF8.0
aF8.0
aF8.0
aF8.0
aF8.0
aF8.0
aF8.0
aF8.0
aF8.0
aF8.0
aF8.0
aF8.0
aF8.0
aF8.0
aF8.0
aF8.0
aF8.0
aF8.0
aF8.0
aF8.0
aF8.0
aF8.0
aF8.0
aF8.0
aF8.0
aF8.0
aF8.0
aF8.0
aF8.0
aF8.0
aF8.0
aF8.0
aF8.0
aF8.0
aF8.0
asg4
(lp29
F7.7500000001
aF15.2500000001
aF23.0000000001
aF30.5000000001
aF38.0000000001
aF45.5000000001
aF53.0000000001
aF60.5000000001
aF68.0000000001
aF75.5000000001
aF83.0000000001
aF90.0000000001
aF97.7500000001
aF105.2500000001
aF112.5000000001
aF120.0000000001
aF127.5000000001
aF135.0000000001
aF142.5000000001
aF150.0000000001
aF157.5000000001
aF164.7500000001
aF171.7500000001
aF178.7500000001
aF186.0000000001
aF193.2500000001
aF200.7500000001
aF208.2500000001
aF216.0000000001
aF223.2500000001
aF231.0000000001
aF238.2500000001
aF245.5000000001
aF252.5000000001
aF259.7500000001
aF267.2500000001
aF274.7500000001
aF282.5000000001
aF290.0000000001
aF297.5000000001
aF304.7500000001
aF311.7500000001
aF318.5000000001
aF325.7500000001
aF333.2500000001
aF340.7500000001
aF348.2500000001
aF355.7500000001
aF362.7500000001
aF370.5000000001
aF377.7500000001
aF384.7500000001
aF391.7500000001
aF399.0000000001
aF406.5000000001
aF414.2500000001
aF421.7500000001
aF429.2500000001
aF436.7500000001
aF444.2500000001
aF451.0000000001
aF458.0000000001
aF465.2500000001
aF472.5000000001
aF480.0000000001
aF487.5000000001
aF495.0000000001
aF501.7500000001
aF509.5000000001
aF516.7500000001
aF523.7500000001
aF530.7500000001
aF538.0000000001
aF545.5000000001
aF553.0000000001
aF560.5000000001
aF568.0000000001
aF575.5000000001
aF583.0000000001
aF590.0000000001
aF597.0000000001
aF604.0000000001
aF611.5000000001
aF619.0000000001
aF626.5000000001
aF634.0000000001
aF640.7500000001
aF648.5000000001
aF655.7500000001
aF662.5000000001
aF669.7500000001
aF677.0000000001
aF684.5000000001
aF692.0000000001
aF699.5000000001
aF707.0000000001
aF714.5000000001
aF722.0000000001
aF728.7500000001
aF735.7500000001
aF743.0000000001
aF750.5000000001
aF758.0000000001
aF765.5000000001
aF773.0000000001
aF780.2500000001
aF787.7500000001
aF794.7500000001
aF801.7500000001
aF809.0000000001
aF816.2500000001
aF823.7500000001
aF831.2500000001
aF838.7500000001
aF846.2500000001
aF853.7500000001
aF861.2500000001
aF868.2500000001
aF875.2500000001
aF882.5000000001
aF890.0000000001
aF897.5000000001
aF905.0000000001
aF912.5000000001
aF920.0000000001
aF927.2500000001
aF934.2500000001
aF941.5000000001
aF948.7500000001
aF956.0000000001
aF963.5000000001
aF971.0000000001
aF978.5000000001
aF986.0000000001
aF993.5000000001
aF1001.0000000001
aF1008.0000000001
aF1015.0000000001
aF1022.5000000001
aF1029.7500000001
aF1037.2500000001
aF1044.7500000001
aF1052.5000000001
aF1060.0000000001
aF1067.2500000001
aF1074.0000000001
aF1081.0000000001
aF1088.2500000001
aF1095.5000000001
aF1103.0000000001
aF1110.5000000001
aF1118.0000000001
aF1125.0000000001
aF1132.7500000001
aF1140.2500000001
aF1147.0000000001
aF1154.2500000001
aF1161.5000000001
aF1168.7500000001
aF1176.2500000001
aF1183.7500000001
aF1191.2500000001
aF1199.0000000001
aF1206.2500000001
aF1213.0000000001
aF1220.0000000001
aF1227.2500000001
aF1234.5000000001
aF1242.0000000001
aF1249.5000000001
aF1257.0000000001
aF1264.0000000001
aF1271.7500000001
aF1279.0000000001
aF1286.0000000001
aF1293.0000000001
aF1300.2500000001
aF1307.7500000001
aF1315.2500000001
aF1322.7500000001
aF1330.2500000001
aF1337.7500000001
aF1345.2500000001
aF1352.0000000001
aF1359.0000000001
aF1366.2500000001
aF1373.5000000001
aF1381.0000000001
aF1388.5000000001
aF1396.0000000001
aF1402.7500000001
aF1410.7500000001
aF1417.7500000001
aF1424.7500000001
aF1432.0000000001
aF1439.2500000001
aF1446.5000000001
aF1454.0000000001
aF1461.5000000001
aF1469.2500000001
aF1476.7500000001
aF1484.0000000001
aF1491.0000000001
aF1498.0000000001
aF1505.0000000001
aF1512.5000000001
aF1520.0000000001
aF1527.5000000001
aF1535.0000000001
aF1541.7500000001
aF1549.5000000001
aF1556.7500000001
aF1563.7500000001
aF1570.7500000001
aF1578.0000000001
aF1585.5000000001
aF1593.0000000001
aF1600.5000000001
aF1608.0000000001
aF1615.5000000001
aF1623.0000000001
aF1629.7500000001
aF1636.7500000001
aF1644.0000000001
aF1651.5000000001
aF1659.0000000001
aF1666.5000000001
aF1674.0000000001
aF1681.0000000001
aF1688.5000000001
aF1695.5000000001
aF1702.5000000001
aF1709.7500000001
aF1717.0000000001
aF1724.2500000001
aF1731.7500000001
aF1739.2500000001
aF1746.7500000001
aF1754.5000000001
aF1761.7500000001
aF1768.7500000001
aF1775.7500000001
aF1783.0000000001
aF1790.2500000001
aF1797.7500000001
aF1805.2500000001
aF1812.7500000001
aF1820.2500000001
aF1827.7500000001
aF1834.5000000001
aF1841.5000000001
aF1848.7500000001
aF1855.7500000001
aF1863.2500000001
aF1870.7500000001
aF1878.2500000001
aF1885.7500000001
aF1893.5000000001
aF1900.7500000001
aF1907.7500000001
aF1914.7500000001
asa(dp30
g2
(lp31
F9.0
aF9.0
aF9.0
aF9.0
aF9.0
aF9.0
aF9.0
aF9.0
aF9.0
aF9.0
aF9.0
aF9.0
aF9.0
aF9.0
aF9.0
aF9.0
aF9.0
aF9.0
aF9.0
aF9.0
aF9.0
aF9.0
aF9.0
aF9.0
aF9.0
aF9.0
aF9.0
aF9.0
aF9.0
aF9.0
aF9.0
aF9.0
aF9.0
aF9.0
aF9.0
aF9.0
aF9.0
aF9.0
aF9.0
aF9.0
aF9.0
aF9.0
aF9.0
aF9.0
aF9.0
aF9.0
aF9.0
aF9.0
aF9.0
aF9.0
aF9.0
aF9.0
aF9.0
aF9.0
aF9.0
aF9.0
aF9.0
aF9.0
aF9.0
aF9.0
aF9.0
aF9.0
aF9.0
aF9.0
aF9.0
aF9.0
aF9.0
aF9.0
aF9.0
aF9.0
aF9.0
aF9.0
aF9.0
aF9.0
aF9.0
aF9.0
aF9.0
aF9.0
aF9.0
aF9.0
aF9.0
aF9.0
aF9.0
aF9.0
aF9.0
aF9.0
aF9.0
aF9.0
aF9.0
aF9.0
aF9.0
aF9.0
aF9.0
aF9.0
aF9.0
aF9.0
aF9.0
aF9.0
aF9.0
aF9.0
aF9.0
aF9.0
aF9.0
aF9.0
aF9.0
aF9.0
aF9.0
aF9.0
aF9.0
aF9.0
aF9.0
aF9.0
aF9.0
aF9.0
aF9.0
aF9.0
aF9.0
aF9.0
aF9.0
aF9.0
aF9.0
aF9.0
aF9.0
aF9.0
aF9.0
aF9.0
aF9.0
aF9.0
aF9.0
aF9.0
aF9.0
aF9.0
aF9.0
aF9.0
aF9.0
aF9.0
aF9.0
aF9.0
aF9.0
aF9.0
aF9.0
aF9.0
aF9.0
aF9.0
aF9.0
aF9.0
aF9.0
aF9.0
aF9.0
aF9.0
aF9.0
aF9.0
aF9.0
aF9.0
aF9.0
aF9.0
aF9.0
aF9.0
aF9.0
aF9.0
aF9.0
aF9.0
aF9.0
aF9.0
aF9.0
aF9.0
aF9.0
aF9.0
aF9.0
aF9.0
aF9.0
aF9.0
aF9.0
aF9.0
aF9.0
aF9.0
aF9.0
aF9.0
aF9.0
aF9.0
aF9.0
aF9.0
aF9.0
aF9.0
aF9.0
aF9.0
aF9.0
aF9.0
aF9.0
aF9.0
aF9.0
aF9.0
aF9.0
aF9.0
aF9.0
aF9.0
aF9.0
aF9.0
aF9.0
aF9.0
aF9.0
aF9.0
aF9.0
aF9.0
aF9.0
aF9.0
aF9.0
aF9.0
aF9.0
aF9.0
aF9.0
aF9.0
aF9.0
aF9.0
aF9.0
aF9.0
aF9.0
aF9.0
aF9.0
aF9.0
aF9.0
aF9.0
aF9.0
aF9.0
aF9.0
aF9.0
aF9.0
aF9.0
aF9.0
aF9.0
aF9.0
aF9.0
aF9.0
aF9.0
aF9.0
aF9.0
aF9.0
aF9.0
aF9.0
aF9.0
aF9.0
aF9.0
aF9.0
aF9.0
aF9.0
aF9.0
aF9.0
aF9.0
aF9.0
aF9.0
aF9.0
aF9.0
aF9.0
aF9.0
aF9.0
aF9.0
aF9.0
aF9.0
aF9.0
aF9.0
aF9.0
asg4
(lp32
F7.7500000001
aF15.2500000001
aF23.0000000001
aF30.5000000001
aF38.0000000001
aF45.5000000001
aF53.0000000001
aF60.5000000001
aF68.0000000001
aF75.5000000001
aF83.0000000001
aF90.2500000001
aF97.7500000001
aF105.2500000001
aF112.7500000001
aF120.0000000001
aF127.5000000001
aF135.0000000001
aF142.5000000001
aF150.0000000001
aF157.5000000001
aF165.0000000001
aF171.7500000001
aF179.0000000001
aF186.0000000001
aF193.5000000001
aF200.7500000001
aF208.5000000001
aF216.0000000001
aF223.5000000001
aF231.0000000001
aF238.5000000001
aF245.5000000001
aF252.5000000001
aF260.0000000001
aF267.2500000001
aF274.7500000001
aF282.5000000001
aF290.0000000001
aF297.5000000001
aF304.7500000001
aF311.7500000001
aF318.7500000001
aF326.0000000001
aF333.2500000001
aF340.7500000001
aF348.2500000001
aF355.7500000001
aF362.7500000001
aF370.5000000001
aF377.7500000001
aF384.7500000001
aF392.0000000001
aF399.2500000001
aF406.7500000001
aF414.2500000001
aF421.7500000001
aF429.2500000001
aF436.7500000001
aF444.2500000001
aF451.2500000001
aF458.2500000001
aF465.2500000001
aF472.5000000001
aF480.0000000001
aF487.5000000001
aF495.0000000001
aF502.0000000001
aF509.5000000001
aF516.7500000001
aF523.7500000001
aF531.0000000001
aF538.2500000001
aF545.5000000001
aF553.0000000001
aF560.5000000001
aF568.0000000001
aF575.5000000001
aF583.0000000001
aF590.0000000001
aF597.0000000001
aF604.2500000001
aF611.5000000001
aF619.0000000001
aF626.5000000001
aF634.0000000001
aF641.0000000001
aF648.5000000001
aF655.7500000001
aF662.7500000001
aF669.7500000001
aF677.0000000001
aF684.5000000001
aF692.0000000001
aF699.5000000001
aF707.0000000001
aF714.5000000001
aF722.0000000001
aF729.0000000001
aF736.0000000001
aF743.2500000001
aF750.5000000001
aF758.0000000001
aF765.5000000001
aF773.0000000001
aF780.2500000001
aF787.7500000001
aF794.7500000001
aF802.0000000001
aF809.0000000001
aF816.2500000001
aF823.5000000001
aF831.0000000001
aF838.5000000001
aF846.0000000001
aF853.5000000001
aF861.0000000001
aF868.2500000001
aF875.2500000001
aF882.5000000001
aF890.0000000001
aF897.2500000001
aF904.7500000001
aF912.5000000001
aF920.0000000001
aF927.2500000001
aF934.2500000001
aF941.2500000001
aF948.5000000001
aF955.7500000001
aF963.2500000001
aF970.7500000001
aF978.2500000001
aF985.7500000001
aF993.2500000001
aF1000.7500000001
aF1007.7500000001
aF1015.0000000001
aF1022.2500000001
aF1029.5000000001
aF1037.0000000001
aF1044.5000000001
aF1052.0000000001
aF1059.7500000001
aF1067.0000000001
aF1073.7500000001
aF1080.7500000001
aF1088.0000000001
aF1095.2500000001
aF1102.7500000001
aF1110.2500000001
aF1117.7500000001
aF1125.0000000001
aF1132.5000000001
aF1140.0000000001
aF1147.0000000001
aF1154.0000000001
aF1161.2500000001
aF1168.7500000001
aF1176.2500000001
aF1183.7500000001
aF1191.2500000001
aF1198.7500000001
aF1206.0000000001
aF1213.0000000001
aF1220.0000000001
aF1227.0000000001
aF1234.2500000001
aF1241.7500000001
aF1249.2500000001
aF1256.7500000001
aF1263.7500000001
aF1271.5000000001
aF1278.7500000001
aF1286.0000000001
aF1293.0000000001
aF1300.2500000001
aF1307.7500000001
aF1315.2500000001
aF1322.7500000001
aF1330.2500000001
aF1337.7500000001
aF1345.0000000001
aF1352.0000000001
aF1359.0000000001
aF1366.0000000001
aF1373.5000000001
aF1380.7500000001
aF1388.2500000001
aF1395.7500000001
aF1402.7500000001
aF1410.5000000001
aF1417.7500000001
aF1424.7500000001
aF1432.0000000001
aF1439.2500000001
aF1446.5000000001
aF1454.0000000001
aF1461.5000000001
aF1469.0000000001
aF1476.5000000001
aF1484.0000000001
aF1491.0000000001
aF1498.0000000001
aF1505.0000000001
aF1512.2500000001
aF1519.7500000001
aF1527.2500000001
aF1534.7500000001
aF1541.7500000001
aF1549.5000000001
aF1556.7500000001
aF1563.7500000001
aF1570.7500000001
aF1578.0000000001
aF1585.5000000001
aF1592.7500000001
aF1600.2500000001
aF1608.0000000001
aF1615.5000000001
aF1622.7500000001
aF1629.7500000001
aF1636.7500000001
aF1644.0000000001
aF1651.2500000001
aF1658.7500000001
aF1666.2500000001
aF1673.7500000001
aF1680.7500000001
aF1688.5000000001
aF1695.5000000001
aF1702.5000000001
aF1709.5000000001
aF1716.7500000001
aF1724.2500000001
aF1731.7500000001
aF1739.2500000001
aF1746.7500000001
aF1754.2500000001
aF1761.7500000001
aF1768.7500000001
aF1775.7500000001
aF1782.7500000001
aF1790.2500000001
aF1797.5000000001
aF1805.0000000001
aF1812.5000000001
aF1819.5000000001
aF1827.2500000001
aF1834.2500000001
aF1841.2500000001
aF1848.2500000001
aF1855.5000000001
aF1863.0000000001
aF1870.5000000001
aF1878.0000000001
aF1885.5000000001
aF1893.0000000001
aF1900.5000000001
aF1907.5000000001
aF1914.5000000001
asa.