(lp0
F7.7500000001
aF15.2500000001
aF23.0000000001
aF30.5000000001
aF38.0000000001
aF45.5000000001
aF53.0000000001
aF60.5000000001
aF68.0000000001
aF75.2500000001
aF82.5000000001
aF89.5000000001
aF96.7500000001
aF104.0000000001
aF111.2500000001
aF118.5000000001
aF126.0000000001
aF133.2500000001
aF140.7500000001
aF148.0000000001
aF155.0000000001
aF162.2500000001
aF169.5000000001
aF176.5000000001
aF183.7500000001
aF190.7500000001
aF198.0000000001
aF205.2500000001
aF212.5000000001
aF219.5000000001
aF226.5000000001
aF233.7500000001
aF240.7500000001
aF247.7500000001
aF254.7500000001
aF262.0000000001
aF269.0000000001
aF276.0000000001
aF283.2500000001
aF290.2500000001
aF297.2500000001
aF304.2500000001
aF311.2500000001
aF318.2500000001
aF325.2500000001
aF332.2500000001
aF339.2500000001
aF346.5000000001
aF353.5000000001
aF360.5000000001
aF367.5000000001
aF374.5000000001
aF381.5000000001
aF388.5000000001
aF395.5000000001
aF402.5000000001
aF409.5000000001
aF416.5000000001
aF423.7500000001
aF430.7500000001
aF437.7500000001
aF444.7500000001
aF451.5000000001
aF458.5000000001
aF465.5000000001
aF472.5000000001
aF479.7500000001
aF486.7500000001
aF493.7500000001
aF500.7500000001
aF507.7500000001
aF514.5000000001
aF521.5000000001
aF528.5000000001
aF535.5000000001
aF542.5000000001
aF549.5000000001
aF556.7500000001
aF563.7500000001
aF570.5000000001
aF577.5000000001
aF584.5000000001
aF591.5000000001
aF598.5000000001
aF605.5000000001
aF612.5000000001
aF619.5000000001
aF626.5000000001
aF633.5000000001
aF640.5000000001
aF647.5000000001
aF654.5000000001
aF661.5000000001
aF668.2500000001
aF675.2500000001
aF682.2500000001
aF689.2500000001
aF696.2500000001
aF703.2500000001
aF710.2500000001
aF717.2500000001
aF724.0000000001
aF731.0000000001
aF738.0000000001
aF745.0000000001
aF752.0000000001
aF759.0000000001
aF766.0000000001
aF773.0000000001
aF779.7500000001
aF786.7500000001
aF793.7500000001
aF800.7500000001
aF807.5000000001
aF814.5000000001
aF821.5000000001
aF828.5000000001
aF835.5000000001
aF842.2500000001
aF849.2500000001
aF856.2500000001
aF863.0000000001
aF870.0000000001
aF876.7500000001
aF883.7500000001
aF890.7500000001
aF897.5000000001
aF904.5000000001
aF911.5000000001
aF918.2500000001
aF925.2500000001
aF932.0000000001
aF939.0000000001
aF945.7500000001
aF952.7500000001
aF959.7500000001
aF966.5000000001
aF973.5000000001
aF980.5000000001
aF987.2500000001
aF994.2500000001
aF1001.0000000001
aF1008.0000000001
aF1014.7500000001
aF1021.7500000001
aF1028.7500000001
aF1035.5000000001
aF1042.5000000001
aF1049.5000000001
aF1056.2500000001
aF1063.2500000001
aF1070.0000000001
aF1077.0000000001
aF1083.7500000001
aF1090.7500000001
aF1097.7500000001
aF1104.7500000001
aF1111.5000000001
aF1118.5000000001
aF1125.5000000001
aF1132.2500000001
aF1139.2500000001
aF1146.0000000001
aF1153.0000000001
aF1160.0000000001
aF1166.7500000001
aF1173.7500000001
aF1180.7500000001
aF1187.7500000001
aF1194.5000000001
aF1201.5000000001
aF1208.2500000001
aF1215.2500000001
aF1222.2500000001
aF1229.0000000001
aF1236.0000000001
aF1243.0000000001
aF1249.7500000001
aF1256.7500000001
aF1263.7500000001
aF1270.5000000001
aF1277.5000000001
aF1284.5000000001
aF1291.2500000001
aF1298.2500000001
aF1305.2500000001
aF1312.2500000001
aF1319.2500000001
aF1326.0000000001
aF1333.0000000001
aF1340.0000000001
aF1346.7500000001
aF1353.7500000001
aF1360.7500000001
aF1367.7500000001
aF1374.5000000001
aF1381.5000000001
aF1388.5000000001
aF1395.5000000001
aF1402.2500000001
aF1409.2500000001
aF1416.2500000001
aF1423.0000000001
aF1430.0000000001
aF1437.0000000001
aF1443.7500000001
aF1450.7500000001
aF1457.7500000001
aF1464.7500000001
aF1471.7500000001
aF1478.5000000001
aF1485.5000000001
aF1492.2500000001
aF1499.2500000001
aF1506.2500000001
aF1513.0000000001
aF1520.0000000001
aF1527.0000000001
aF1534.0000000001
aF1540.7500000001
aF1547.7500000001
aF1554.7500000001
aF1561.5000000001
aF1568.5000000001
aF1575.5000000001
aF1582.5000000001
aF1589.5000000001
aF1596.5000000001
aF1603.2500000001
aF1610.2500000001
aF1617.2500000001
aF1624.2500000001
aF1631.0000000001
aF1638.0000000001
aF1645.0000000001
aF1652.0000000001
aF1658.7500000001
aF1665.7500000001
aF1672.7500000001
aF1679.7500000001
aF1686.7500000001
aF1693.5000000001
aF1700.5000000001
aF1707.5000000001
aF1714.2500000001
aF1721.2500000001
aF1728.2500000001
aF1735.2500000001
aF1742.2500000001
aF1749.2500000001
aF1756.2500000001
aF1763.0000000001
aF1770.0000000001
aF1777.0000000001
aF1784.0000000001
aF1791.0000000001
aF1798.0000000001
aF1805.0000000001
aF1812.0000000001
aF1819.0000000001
aF1826.2500000001
aF1833.2500000001
aF1840.2500000001
aF1847.2500000001
aF1854.2500000001
aF1861.2500000001
aF1868.5000000001
aF1875.5000000001
aF1882.5000000001
aF1889.7500000001
aF1896.7500000001
aF1903.7500000001
aF1910.7500000001
aF1917.7500000001
aF1925.0000000001
aF1932.0000000001
aF1939.2500000001
aF1946.2500000001
aF1953.5000000001
aF1960.5000000001
aF1967.5000000001
aF1974.7500000001
aF1981.7500000001
aF1989.0000000001
aF1996.0000000001
a.