(lp0
F7.7500000001
aF15.2500000001
aF23.0000000001
aF30.5000000001
aF38.0000000001
aF45.5000000001
aF53.0000000001
aF60.5000000001
aF68.0000000001
aF75.2500000001
aF82.2500000001
aF89.2500000001
aF96.2500000001
aF103.5000000001
aF110.5000000001
aF117.5000000001
aF125.0000000001
aF132.2500000001
aF139.7500000001
aF147.0000000001
aF154.0000000001
aF161.0000000001
aF168.2500000001
aF175.2500000001
aF182.2500000001
aF189.5000000001
aF197.0000000001
aF204.2500000001
aF211.5000000001
aF218.5000000001
aF225.5000000001
aF232.5000000001
aF239.2500000001
aF246.2500000001
aF253.0000000001
aF260.0000000001
aF267.0000000001
aF274.0000000001
aF280.7500000001
aF287.7500000001
aF294.7500000001
aF301.5000000001
aF308.5000000001
aF315.2500000001
aF322.0000000001
aF329.0000000001
aF336.0000000001
aF342.7500000001
aF349.7500000001
aF356.5000000001
aF363.5000000001
aF370.2500000001
aF377.2500000001
aF384.0000000001
aF391.0000000001
aF397.7500000001
aF404.7500000001
aF411.7500000001
aF418.7500000001
aF425.7500000001
aF432.7500000001
aF439.5000000001
aF446.5000000001
aF453.2500000001
aF460.0000000001
aF467.0000000001
aF473.7500000001
aF480.7500000001
aF487.5000000001
aF494.2500000001
aF501.2500000001
aF508.0000000001
aF514.7500000001
aF521.5000000001
aF528.2500000001
aF535.0000000001
aF542.0000000001
aF548.7500000001
aF555.5000000001
aF562.2500000001
aF569.2500000001
aF576.0000000001
aF582.7500000001
aF589.5000000001
aF596.5000000001
aF603.2500000001
aF610.2500000001
aF617.0000000001
aF624.0000000001
aF631.0000000001
aF637.7500000001
aF644.5000000001
aF651.2500000001
aF658.0000000001
aF664.7500000001
aF671.5000000001
aF678.2500000001
aF685.0000000001
aF691.5000000001
aF698.2500000001
aF705.0000000001
aF711.7500000001
aF718.5000000001
aF725.2500000001
aF732.0000000001
aF738.7500000001
aF745.5000000001
aF752.2500000001
aF759.0000000001
aF765.7500000001
aF772.5000000001
aF779.5000000001
aF786.2500000001
aF793.0000000001
aF799.7500000001
aF806.5000000001
aF813.5000000001
aF820.2500000001
aF827.2500000001
aF834.0000000001
aF841.0000000001
aF847.7500000001
aF854.7500000001
aF861.5000000001
aF868.2500000001
aF875.2500000001
aF882.2500000001
aF889.2500000001
aF896.2500000001
aF903.2500000001
aF910.0000000001
aF917.0000000001
aF923.7500000001
aF930.5000000001
aF937.5000000001
aF944.2500000001
aF951.0000000001
aF957.7500000001
aF964.5000000001
aF971.5000000001
aF978.2500000001
aF985.0000000001
aF991.7500000001
aF998.5000000001
a.