(lp0
F7.7500000001
aF15.2500000001
aF23.0000000001
aF30.5000000001
aF38.0000000001
aF45.5000000001
aF53.0000000001
aF60.5000000001
aF68.0000000001
aF75.5000000001
aF82.5000000001
aF89.5000000001
aF97.2500000001
aF104.2500000001
aF111.5000000001
aF119.0000000001
aF126.5000000001
aF133.7500000001
aF141.0000000001
aF148.0000000001
aF155.2500000001
aF162.2500000001
aF169.7500000001
aF177.2500000001
aF184.5000000001
aF191.7500000001
aF198.7500000001
aF206.2500000001
aF213.7500000001
aF221.2500000001
aF228.2500000001
aF235.7500000001
aF243.2500000001
aF250.5000000001
aF258.0000000001
aF265.2500000001
aF272.5000000001
aF280.0000000001
aF287.5000000001
aF294.7500000001
aF302.2500000001
aF309.2500000001
aF317.0000000001
aF324.0000000001
aF331.5000000001
aF339.0000000001
aF346.2500000001
aF353.7500000001
aF361.0000000001
aF368.2500000001
aF375.7500000001
aF383.0000000001
aF390.5000000001
aF397.7500000001
a.