(lp0
F7.7500000001
aF15.2500000001
aF23.0000000001
aF30.5000000001
aF38.0000000001
aF45.5000000001
aF53.0000000001
aF60.5000000001
aF68.0000000001
aF75.2500000001
aF82.2500000001
aF89.2500000001
aF96.2500000001
aF103.2500000001
aF110.5000000001
aF117.5000000001
aF125.0000000001
aF132.2500000001
aF139.7500000001
aF147.0000000001
aF154.0000000001
aF161.0000000001
aF168.0000000001
aF175.2500000001
aF182.2500000001
aF189.5000000001
aF197.0000000001
aF204.2500000001
aF211.5000000001
aF218.7500000001
aF225.7500000001
aF232.7500000001
aF239.7500000001
aF246.7500000001
aF253.5000000001
aF260.5000000001
aF267.2500000001
aF274.2500000001
aF281.0000000001
aF288.0000000001
aF294.7500000001
aF301.5000000001
aF308.5000000001
aF315.2500000001
aF322.0000000001
aF329.0000000001
aF335.7500000001
aF342.5000000001
aF349.5000000001
aF356.2500000001
aF363.2500000001
aF370.0000000001
aF377.0000000001
aF383.7500000001
aF390.7500000001
aF397.5000000001
aF404.5000000001
aF411.5000000001
aF418.5000000001
aF425.2500000001
aF432.2500000001
aF439.0000000001
aF445.7500000001
aF452.5000000001
aF459.2500000001
aF466.0000000001
aF472.7500000001
aF479.5000000001
aF486.2500000001
aF493.0000000001
aF499.7500000001
aF506.5000000001
aF513.2500000001
aF520.0000000001
aF526.7500000001
aF533.5000000001
aF540.2500000001
aF547.0000000001
aF553.7500000001
aF560.5000000001
aF567.5000000001
aF574.2500000001
aF581.0000000001
aF587.7500000001
aF594.5000000001
aF601.2500000001
aF608.2500000001
aF615.0000000001
aF622.0000000001
aF628.7500000001
aF635.5000000001
aF642.5000000001
aF649.2500000001
aF656.0000000001
aF662.7500000001
aF669.5000000001
aF676.2500000001
aF683.0000000001
aF689.7500000001
aF696.5000000001
aF703.2500000001
aF710.0000000001
aF716.7500000001
aF723.5000000001
aF730.2500000001
aF737.2500000001
aF744.0000000001
aF750.7500000001
aF757.5000000001
aF764.5000000001
aF771.2500000001
aF778.0000000001
aF784.7500000001
aF791.7500000001
aF798.5000000001
aF805.2500000001
aF812.2500000001
aF819.0000000001
aF826.0000000001
aF833.0000000001
aF839.7500000001
aF846.7500000001
aF853.5000000001
aF860.5000000001
aF867.5000000001
aF874.2500000001
aF881.2500000001
aF888.2500000001
aF895.2500000001
aF902.5000000001
aF909.5000000001
aF916.5000000001
aF923.2500000001
aF930.2500000001
aF937.0000000001
aF944.0000000001
aF950.7500000001
aF957.7500000001
aF964.5000000001
aF971.5000000001
aF978.2500000001
aF985.2500000001
aF992.0000000001
aF998.7500000001
a.