(lp0
F7.7500000001
aF15.2500000001
aF23.0000000001
aF30.5000000001
aF38.0000000001
aF45.5000000001
aF53.0000000001
aF60.5000000001
aF68.0000000001
aF75.5000000001
aF82.5000000001
aF90.0000000001
aF97.2500000001
aF104.2500000001
aF111.7500000001
aF119.0000000001
aF126.2500000001
aF133.2500000001
aF140.2500000001
aF147.5000000001
aF155.0000000001
aF162.5000000001
aF169.5000000001
aF177.0000000001
aF184.5000000001
aF191.7500000001
aF199.0000000001
aF206.2500000001
aF214.0000000001
aF221.2500000001
aF228.2500000001
aF236.0000000001
aF243.2500000001
aF250.5000000001
aF258.0000000001
aF265.2500000001
aF272.7500000001
aF280.0000000001
aF287.5000000001
aF294.7500000001
aF302.2500000001
aF309.5000000001
aF317.0000000001
aF324.5000000001
aF331.7500000001
aF339.2500000001
aF346.5000000001
aF354.0000000001
aF361.2500000001
aF368.5000000001
aF376.0000000001
aF383.2500000001
aF390.7500000001
aF398.0000000001
a.