(lp0
F7.7500000001
aF15.2500000001
aF23.0000000001
aF30.5000000001
aF38.0000000001
aF45.5000000001
aF53.0000000001
aF60.5000000001
aF68.0000000001
aF75.2500000001
aF82.5000000001
aF89.7500000001
aF96.7500000001
aF104.0000000001
aF111.2500000001
aF118.5000000001
aF126.0000000001
aF133.2500000001
aF140.7500000001
aF148.0000000001
aF155.2500000001
aF162.2500000001
aF169.5000000001
aF176.7500000001
aF183.7500000001
aF191.0000000001
aF198.2500000001
aF205.7500000001
aF212.7500000001
aF220.0000000001
aF227.0000000001
aF234.2500000001
aF241.2500000001
aF248.5000000001
aF255.5000000001
aF262.7500000001
aF269.7500000001
aF277.0000000001
aF284.2500000001
aF291.2500000001
aF298.2500000001
aF305.2500000001
aF312.5000000001
aF319.5000000001
aF326.5000000001
aF333.7500000001
aF340.7500000001
aF348.0000000001
aF355.0000000001
aF362.2500000001
aF369.2500000001
aF376.2500000001
aF383.2500000001
aF390.5000000001
aF397.5000000001
aF404.7500000001
aF411.7500000001
aF419.0000000001
aF426.0000000001
aF433.0000000001
aF440.0000000001
aF447.0000000001
aF454.2500000001
aF461.2500000001
aF468.2500000001
aF475.2500000001
aF482.5000000001
aF489.5000000001
aF496.5000000001
aF503.5000000001
aF510.7500000001
aF517.7500000001
aF524.7500000001
aF531.7500000001
aF538.7500000001
aF546.0000000001
aF553.0000000001
aF560.2500000001
aF567.2500000001
aF574.2500000001
aF581.2500000001
aF588.2500000001
aF595.2500000001
aF602.2500000001
aF609.5000000001
aF616.5000000001
aF623.5000000001
aF630.7500000001
aF637.7500000001
aF644.7500000001
aF651.7500000001
aF658.7500000001
aF665.7500000001
aF672.7500000001
aF679.7500000001
aF687.0000000001
aF694.0000000001
aF701.0000000001
aF708.0000000001
aF715.0000000001
aF722.0000000001
aF729.0000000001
aF736.0000000001
aF743.0000000001
aF750.0000000001
aF757.2500000001
aF764.2500000001
aF771.2500000001
aF778.2500000001
aF785.2500000001
aF792.2500000001
aF799.2500000001
aF806.0000000001
aF813.0000000001
aF820.0000000001
aF827.0000000001
aF834.0000000001
aF841.0000000001
aF848.0000000001
aF854.7500000001
aF861.7500000001
aF868.7500000001
aF875.5000000001
aF882.5000000001
aF889.5000000001
aF896.5000000001
aF903.5000000001
aF910.5000000001
aF917.2500000001
aF924.2500000001
aF931.2500000001
aF938.0000000001
aF945.0000000001
aF952.0000000001
aF959.0000000001
aF966.0000000001
aF973.0000000001
aF979.7500000001
aF986.7500000001
aF993.7500000001
aF1000.5000000001
aF1007.5000000001
aF1014.5000000001
aF1021.5000000001
aF1028.2500000001
aF1035.2500000001
aF1042.2500000001
aF1049.0000000001
aF1056.0000000001
aF1063.0000000001
aF1069.7500000001
aF1076.7500000001
aF1083.7500000001
aF1090.5000000001
aF1097.5000000001
aF1104.5000000001
aF1111.5000000001
aF1118.5000000001
aF1125.2500000001
aF1132.2500000001
aF1139.2500000001
aF1146.0000000001
aF1153.0000000001
aF1160.0000000001
aF1167.0000000001
aF1174.0000000001
aF1181.0000000001
aF1187.7500000001
aF1194.7500000001
aF1201.7500000001
aF1208.7500000001
aF1215.7500000001
aF1222.7500000001
aF1229.5000000001
aF1236.7500000001
aF1243.7500000001
aF1250.7500000001
aF1257.7500000001
aF1264.5000000001
aF1271.5000000001
aF1278.5000000001
aF1285.5000000001
aF1292.5000000001
aF1299.5000000001
aF1306.5000000001
aF1313.5000000001
aF1320.7500000001
aF1327.7500000001
aF1334.7500000001
aF1341.7500000001
aF1348.7500000001
aF1355.7500000001
aF1362.7500000001
aF1369.7500000001
aF1376.7500000001
aF1383.7500000001
aF1391.0000000001
aF1398.0000000001
aF1405.0000000001
aF1412.0000000001
aF1419.0000000001
aF1426.0000000001
aF1433.0000000001
aF1440.0000000001
aF1447.2500000001
aF1454.2500000001
aF1461.2500000001
aF1468.2500000001
aF1475.2500000001
aF1482.5000000001
aF1489.5000000001
aF1496.5000000001
aF1503.5000000001
aF1510.5000000001
aF1517.7500000001
aF1524.7500000001
aF1531.7500000001
aF1538.7500000001
aF1546.0000000001
aF1553.0000000001
aF1560.0000000001
aF1567.0000000001
aF1574.0000000001
aF1581.0000000001
aF1588.2500000001
aF1595.2500000001
aF1602.5000000001
aF1609.5000000001
aF1616.5000000001
aF1623.5000000001
aF1630.5000000001
aF1637.5000000001
aF1644.5000000001
aF1651.7500000001
aF1658.7500000001
aF1666.0000000001
aF1673.0000000001
aF1680.0000000001
aF1687.0000000001
aF1694.0000000001
aF1701.0000000001
aF1708.2500000001
aF1715.2500000001
aF1722.2500000001
aF1729.5000000001
aF1736.5000000001
aF1743.5000000001
aF1750.5000000001
aF1757.7500000001
aF1764.7500000001
aF1771.7500000001
aF1778.7500000001
aF1786.0000000001
aF1793.2500000001
aF1800.5000000001
aF1807.5000000001
aF1814.7500000001
aF1821.7500000001
aF1829.0000000001
aF1836.0000000001
aF1843.2500000001
aF1850.5000000001
aF1857.7500000001
aF1865.0000000001
aF1872.2500000001
aF1879.5000000001
aF1886.7500000001
aF1893.7500000001
aF1901.0000000001
aF1908.2500000001
aF1915.2500000001
aF1922.5000000001
aF1930.0000000001
aF1937.2500000001
aF1944.5000000001
aF1951.7500000001
aF1959.0000000001
aF1966.2500000001
aF1973.2500000001
aF1980.5000000001
aF1987.7500000001
aF1995.0000000001
a.