(lp0
F7.7500000001
aF15.2500000001
aF23.0000000001
aF30.5000000001
aF38.0000000001
aF45.5000000001
aF53.0000000001
aF60.5000000001
aF68.0000000001
aF75.2500000001
aF82.2500000001
aF89.2500000001
aF96.2500000001
aF103.5000000001
aF110.5000000001
aF117.7500000001
aF125.0000000001
aF132.2500000001
aF139.7500000001
aF146.7500000001
aF154.0000000001
aF161.0000000001
aF168.0000000001
aF174.7500000001
aF181.7500000001
aF188.7500000001
aF195.7500000001
aF203.0000000001
aF210.0000000001
aF217.0000000001
aF224.0000000001
aF230.7500000001
aF237.7500000001
aF244.7500000001
aF251.5000000001
aF258.5000000001
aF265.5000000001
aF272.5000000001
aF279.2500000001
aF286.2500000001
aF293.2500000001
aF300.0000000001
aF307.0000000001
aF313.7500000001
aF320.7500000001
aF327.5000000001
aF334.5000000001
aF341.5000000001
aF348.5000000001
aF355.5000000001
aF362.5000000001
aF369.2500000001
aF376.2500000001
aF383.0000000001
aF390.0000000001
aF397.0000000001
aF403.7500000001
aF410.7500000001
aF417.7500000001
aF424.7500000001
aF431.5000000001
aF438.5000000001
aF445.2500000001
aF452.2500000001
aF459.0000000001
aF465.7500000001
aF472.7500000001
aF479.5000000001
aF486.5000000001
aF493.2500000001
aF500.2500000001
aF507.0000000001
aF513.7500000001
aF520.5000000001
aF527.5000000001
aF534.2500000001
aF541.0000000001
aF548.0000000001
aF554.7500000001
aF561.7500000001
aF568.5000000001
aF575.2500000001
aF582.2500000001
aF589.0000000001
aF595.7500000001
aF602.7500000001
aF609.5000000001
aF616.2500000001
aF623.2500000001
aF630.0000000001
aF636.7500000001
aF643.5000000001
aF650.2500000001
aF657.2500000001
aF664.0000000001
aF670.7500000001
aF677.5000000001
aF684.2500000001
aF691.2500000001
aF698.0000000001
aF704.7500000001
aF711.5000000001
aF718.2500000001
aF725.0000000001
aF732.0000000001
aF738.7500000001
aF745.5000000001
aF752.2500000001
aF759.0000000001
aF766.0000000001
aF772.7500000001
aF779.5000000001
aF786.2500000001
aF793.0000000001
aF799.7500000001
aF806.5000000001
aF813.2500000001
aF820.0000000001
aF826.7500000001
aF833.5000000001
aF840.2500000001
aF847.0000000001
aF853.7500000001
aF860.5000000001
aF867.2500000001
aF874.0000000001
aF881.0000000001
aF887.7500000001
aF894.5000000001
aF901.2500000001
aF908.0000000001
aF914.7500000001
aF921.5000000001
aF928.2500000001
aF935.0000000001
aF941.7500000001
aF948.5000000001
aF955.2500000001
aF962.0000000001
aF968.7500000001
aF975.5000000001
aF982.5000000001
aF989.2500000001
aF996.0000000001
aF1002.7500000001
aF1009.2500000001
aF1016.0000000001
aF1022.7500000001
aF1029.5000000001
aF1036.2500000001
aF1043.0000000001
aF1049.7500000001
aF1056.5000000001
aF1063.2500000001
aF1070.0000000001
aF1076.7500000001
aF1083.5000000001
aF1090.2500000001
aF1097.0000000001
aF1103.7500000001
aF1110.5000000001
aF1117.2500000001
aF1124.0000000001
aF1130.7500000001
aF1137.5000000001
aF1144.2500000001
aF1151.0000000001
aF1157.7500000001
aF1164.7500000001
aF1171.5000000001
aF1178.2500000001
aF1185.0000000001
aF1191.7500000001
aF1198.5000000001
aF1205.2500000001
aF1212.0000000001
aF1218.7500000001
aF1225.5000000001
aF1232.2500000001
aF1239.0000000001
aF1245.7500000001
aF1252.5000000001
aF1259.2500000001
aF1266.0000000001
aF1272.7500000001
aF1279.5000000001
aF1286.2500000001
aF1293.0000000001
aF1299.7500000001
aF1306.7500000001
aF1313.5000000001
aF1320.2500000001
aF1327.0000000001
aF1333.7500000001
aF1340.5000000001
aF1347.2500000001
aF1354.0000000001
aF1360.7500000001
aF1367.5000000001
aF1374.2500000001
aF1381.0000000001
aF1387.7500000001
aF1394.5000000001
aF1401.5000000001
aF1408.2500000001
aF1415.0000000001
aF1421.7500000001
aF1428.5000000001
aF1435.2500000001
aF1442.0000000001
aF1449.0000000001
aF1455.7500000001
aF1462.5000000001
aF1469.2500000001
aF1476.2500000001
aF1483.0000000001
aF1489.7500000001
aF1496.5000000001
aF1503.5000000001
aF1510.2500000001
aF1517.0000000001
aF1524.0000000001
aF1530.7500000001
aF1537.5000000001
aF1544.5000000001
aF1551.2500000001
aF1558.0000000001
aF1564.7500000001
aF1571.7500000001
aF1578.5000000001
aF1585.5000000001
aF1592.2500000001
aF1599.0000000001
aF1606.0000000001
aF1612.7500000001
aF1619.5000000001
aF1626.5000000001
aF1633.2500000001
aF1640.0000000001
aF1647.0000000001
aF1653.7500000001
aF1660.7500000001
aF1667.5000000001
aF1674.5000000001
aF1681.2500000001
aF1688.2500000001
aF1695.0000000001
aF1701.7500000001
aF1708.7500000001
aF1715.5000000001
aF1722.5000000001
aF1729.2500000001
aF1736.2500000001
aF1743.2500000001
aF1750.0000000001
aF1757.0000000001
aF1763.7500000001
aF1770.7500000001
aF1777.5000000001
aF1784.5000000001
aF1791.5000000001
aF1798.5000000001
aF1805.5000000001
aF1812.5000000001
aF1819.2500000001
aF1826.2500000001
aF1833.2500000001
aF1840.2500000001
aF1847.2500000001
aF1854.2500000001
aF1861.2500000001
aF1868.2500000001
aF1875.5000000001
aF1882.5000000001
aF1889.5000000001
aF1896.5000000001
aF1903.5000000001
aF1910.5000000001
aF1917.5000000001
aF1924.7500000001
aF1931.7500000001
aF1939.0000000001
aF1946.2500000001
aF1953.2500000001
aF1960.2500000001
aF1967.2500000001
aF1974.2500000001
aF1981.2500000001
aF1988.5000000001
aF1995.7500000001
a.