(lp0
F7.7500000001
aF15.2500000001
aF23.0000000001
aF30.5000000001
aF38.0000000001
aF45.5000000001
aF53.0000000001
aF60.5000000001
aF68.0000000001
aF75.2500000001
aF82.5000000001
aF89.7500000001
aF96.7500000001
aF104.0000000001
aF111.2500000001
aF118.5000000001
aF126.0000000001
aF133.2500000001
aF140.7500000001
aF148.0000000001
aF155.2500000001
aF162.2500000001
aF169.5000000001
aF176.7500000001
aF184.0000000001
aF191.2500000001
aF198.5000000001
aF206.0000000001
aF213.2500000001
aF220.2500000001
aF227.5000000001
aF234.7500000001
aF241.7500000001
aF249.0000000001
aF256.0000000001
aF263.2500000001
aF270.7500000001
aF278.0000000001
aF285.2500000001
aF292.2500000001
aF299.5000000001
aF306.5000000001
aF313.7500000001
aF320.7500000001
aF328.0000000001
aF335.2500000001
aF342.5000000001
aF349.7500000001
aF357.0000000001
aF364.0000000001
aF371.2500000001
aF378.2500000001
aF385.5000000001
aF392.5000000001
aF399.7500000001
aF407.0000000001
aF414.2500000001
aF421.5000000001
aF428.5000000001
aF435.7500000001
aF442.7500000001
aF450.0000000001
aF457.0000000001
aF464.0000000001
aF471.2500000001
aF478.5000000001
aF485.7500000001
aF493.0000000001
aF500.0000000001
aF507.2500000001
aF514.2500000001
aF521.2500000001
aF528.5000000001
aF535.5000000001
aF542.7500000001
aF550.0000000001
aF557.2500000001
aF564.5000000001
aF571.5000000001
aF578.7500000001
aF585.7500000001
aF592.7500000001
aF600.0000000001
aF607.0000000001
aF614.2500000001
aF621.5000000001
aF628.7500000001
aF635.7500000001
aF642.7500000001
aF650.0000000001
aF657.0000000001
aF664.0000000001
aF671.0000000001
aF678.2500000001
aF685.5000000001
aF692.5000000001
aF699.7500000001
aF706.7500000001
aF713.7500000001
aF721.0000000001
aF728.0000000001
aF735.0000000001
aF742.2500000001
aF749.2500000001
aF756.5000000001
aF763.5000000001
aF770.7500000001
aF777.7500000001
aF784.7500000001
aF791.7500000001
aF798.7500000001
aF805.7500000001
aF812.7500000001
aF820.0000000001
aF827.0000000001
aF834.0000000001
aF841.0000000001
aF848.0000000001
aF855.0000000001
aF861.7500000001
aF868.7500000001
aF875.7500000001
aF882.7500000001
aF889.7500000001
aF896.7500000001
aF903.7500000001
aF910.7500000001
aF917.7500000001
aF924.7500000001
aF931.7500000001
aF938.5000000001
aF945.5000000001
aF952.5000000001
aF959.5000000001
aF966.5000000001
aF973.5000000001
aF980.5000000001
aF987.5000000001
aF994.5000000001
aF1001.5000000001
aF1008.5000000001
aF1015.2500000001
aF1022.2500000001
aF1029.2500000001
aF1036.2500000001
aF1043.2500000001
aF1050.2500000001
aF1057.2500000001
aF1064.2500000001
aF1071.0000000001
aF1078.0000000001
aF1085.0000000001
aF1092.0000000001
aF1099.0000000001
aF1106.0000000001
aF1113.0000000001
aF1120.0000000001
aF1127.0000000001
aF1134.0000000001
aF1141.0000000001
aF1148.0000000001
aF1155.0000000001
aF1162.0000000001
aF1169.0000000001
aF1176.0000000001
aF1183.2500000001
aF1190.2500000001
aF1197.2500000001
aF1204.2500000001
aF1211.2500000001
aF1218.2500000001
aF1225.2500000001
aF1232.2500000001
aF1239.2500000001
aF1246.5000000001
aF1253.5000000001
aF1260.5000000001
aF1267.5000000001
aF1274.5000000001
aF1281.5000000001
aF1288.5000000001
aF1295.7500000001
aF1302.7500000001
aF1310.0000000001
aF1317.0000000001
aF1324.2500000001
aF1331.2500000001
aF1338.2500000001
aF1345.2500000001
aF1352.5000000001
aF1359.5000000001
aF1366.5000000001
aF1373.7500000001
aF1380.7500000001
aF1388.0000000001
aF1395.2500000001
aF1402.2500000001
aF1409.2500000001
aF1416.5000000001
aF1423.5000000001
aF1430.5000000001
aF1437.7500000001
aF1445.0000000001
aF1452.0000000001
aF1459.2500000001
aF1466.5000000001
aF1473.5000000001
aF1480.5000000001
aF1487.7500000001
aF1494.7500000001
aF1502.0000000001
aF1509.0000000001
aF1516.2500000001
aF1523.5000000001
aF1530.7500000001
aF1537.7500000001
aF1545.0000000001
aF1552.0000000001
aF1559.0000000001
aF1566.2500000001
aF1573.2500000001
aF1580.5000000001
aF1587.7500000001
aF1594.7500000001
aF1602.0000000001
aF1609.2500000001
aF1616.2500000001
aF1623.2500000001
aF1630.5000000001
aF1637.5000000001
aF1644.7500000001
aF1652.0000000001
aF1659.2500000001
aF1666.5000000001
aF1673.5000000001
aF1680.7500000001
aF1687.7500000001
aF1695.0000000001
aF1702.0000000001
aF1709.0000000001
aF1716.2500000001
aF1723.5000000001
aF1730.7500000001
aF1738.0000000001
aF1745.0000000001
aF1752.2500000001
aF1759.2500000001
aF1766.5000000001
aF1773.5000000001
aF1780.7500000001
aF1788.0000000001
aF1795.2500000001
aF1802.5000000001
aF1809.7500000001
aF1817.0000000001
aF1824.0000000001
aF1831.2500000001
aF1838.5000000001
aF1845.5000000001
aF1852.7500000001
aF1860.2500000001
aF1867.5000000001
aF1874.7500000001
aF1882.0000000001
aF1889.2500000001
aF1896.5000000001
aF1903.7500000001
aF1910.7500000001
aF1918.0000000001
aF1925.5000000001
aF1932.7500000001
aF1940.2500000001
aF1947.5000000001
aF1954.7500000001
aF1961.7500000001
aF1969.0000000001
aF1976.2500000001
aF1983.5000000001
aF1990.7500000001
aF1998.2500000001
a.