(lp0
F7.7500000001
aF15.2500000001
aF23.0000000001
aF30.5000000001
aF38.0000000001
aF45.5000000001
aF53.0000000001
aF60.5000000001
aF68.0000000001
aF75.2500000001
aF82.5000000001
aF89.7500000001
aF96.7500000001
aF104.0000000001
aF111.2500000001
aF118.5000000001
aF126.0000000001
aF133.2500000001
aF140.7500000001
aF148.0000000001
aF155.2500000001
aF162.2500000001
aF169.5000000001
aF176.7500000001
aF183.7500000001
aF191.0000000001
aF198.2500000001
aF205.5000000001
aF212.7500000001
aF220.0000000001
aF227.0000000001
aF234.2500000001
aF241.2500000001
aF248.2500000001
aF255.5000000001
aF262.7500000001
aF269.7500000001
aF277.0000000001
aF284.2500000001
aF291.2500000001
aF298.2500000001
aF305.2500000001
aF312.5000000001
aF319.5000000001
aF326.5000000001
aF333.7500000001
aF340.7500000001
aF348.0000000001
aF355.0000000001
aF362.2500000001
aF369.2500000001
aF376.2500000001
aF383.2500000001
aF390.2500000001
aF397.5000000001
aF404.5000000001
aF411.7500000001
aF418.7500000001
aF426.0000000001
aF433.0000000001
aF440.0000000001
aF447.0000000001
aF454.0000000001
aF461.0000000001
aF468.2500000001
aF475.2500000001
aF482.5000000001
aF489.5000000001
aF496.5000000001
aF503.5000000001
aF510.5000000001
aF517.5000000001
aF524.7500000001
aF531.7500000001
aF538.7500000001
aF546.0000000001
aF553.0000000001
aF560.2500000001
aF567.2500000001
aF574.2500000001
aF581.2500000001
aF588.2500000001
aF595.2500000001
aF602.2500000001
aF609.2500000001
aF616.5000000001
aF623.5000000001
aF630.7500000001
aF637.7500000001
aF644.7500000001
aF651.7500000001
aF658.7500000001
aF665.7500000001
aF672.7500000001
aF680.0000000001
aF687.0000000001
aF694.0000000001
aF701.0000000001
aF708.2500000001
aF715.2500000001
aF722.2500000001
aF729.0000000001
aF736.0000000001
aF743.2500000001
aF750.2500000001
aF757.2500000001
aF764.5000000001
aF771.5000000001
aF778.5000000001
aF785.5000000001
aF792.2500000001
aF799.2500000001
aF806.2500000001
aF813.2500000001
aF820.2500000001
aF827.2500000001
aF834.2500000001
aF841.2500000001
aF848.2500000001
aF855.2500000001
aF862.0000000001
aF869.0000000001
aF876.0000000001
aF883.0000000001
aF890.0000000001
aF897.0000000001
aF904.0000000001
aF911.0000000001
aF917.7500000001
aF924.7500000001
aF931.7500000001
aF938.5000000001
aF945.5000000001
aF952.5000000001
aF959.5000000001
aF966.5000000001
aF973.5000000001
aF980.2500000001
aF987.2500000001
aF994.2500000001
aF1001.2500000001
aF1008.0000000001
aF1015.0000000001
aF1022.0000000001
aF1029.0000000001
aF1035.7500000001
aF1042.7500000001
aF1049.7500000001
aF1056.7500000001
aF1063.5000000001
aF1070.5000000001
aF1077.5000000001
aF1084.5000000001
aF1091.5000000001
aF1098.5000000001
aF1105.5000000001
aF1112.5000000001
aF1119.5000000001
aF1126.2500000001
aF1133.2500000001
aF1140.2500000001
aF1147.2500000001
aF1154.2500000001
aF1161.2500000001
aF1168.2500000001
aF1175.2500000001
aF1182.2500000001
aF1189.2500000001
aF1196.0000000001
aF1203.0000000001
aF1210.0000000001
aF1217.0000000001
aF1224.0000000001
aF1231.0000000001
aF1238.0000000001
aF1245.0000000001
aF1252.0000000001
aF1259.0000000001
aF1266.0000000001
aF1273.0000000001
aF1280.0000000001
aF1287.0000000001
aF1294.0000000001
aF1301.0000000001
aF1308.0000000001
aF1315.0000000001
aF1322.0000000001
aF1329.0000000001
aF1336.0000000001
aF1343.0000000001
aF1350.0000000001
aF1357.0000000001
aF1364.0000000001
aF1371.2500000001
aF1378.2500000001
aF1385.2500000001
aF1392.2500000001
aF1399.5000000001
aF1406.5000000001
aF1413.5000000001
aF1420.5000000001
aF1427.5000000001
aF1434.5000000001
aF1441.5000000001
aF1448.7500000001
aF1455.7500000001
aF1462.7500000001
aF1469.7500000001
aF1476.7500000001
aF1483.7500000001
aF1490.7500000001
aF1497.7500000001
aF1505.0000000001
aF1512.0000000001
aF1519.0000000001
aF1526.2500000001
aF1533.2500000001
aF1540.2500000001
aF1547.2500000001
aF1554.2500000001
aF1561.5000000001
aF1568.5000000001
aF1575.5000000001
aF1582.5000000001
aF1589.7500000001
aF1596.7500000001
aF1603.7500000001
aF1611.0000000001
aF1618.0000000001
aF1625.0000000001
aF1632.0000000001
aF1639.0000000001
aF1646.2500000001
aF1653.2500000001
aF1660.5000000001
aF1667.5000000001
aF1674.5000000001
aF1681.5000000001
aF1688.5000000001
aF1695.7500000001
aF1702.7500000001
aF1709.7500000001
aF1716.7500000001
aF1723.7500000001
aF1731.0000000001
aF1738.0000000001
aF1745.0000000001
aF1752.2500000001
aF1759.2500000001
aF1766.2500000001
aF1773.2500000001
aF1780.5000000001
aF1787.5000000001
aF1794.7500000001
aF1802.0000000001
aF1809.2500000001
aF1816.2500000001
aF1823.5000000001
aF1830.5000000001
aF1837.7500000001
aF1844.7500000001
aF1852.0000000001
aF1859.2500000001
aF1866.5000000001
aF1873.7500000001
aF1881.0000000001
aF1888.2500000001
aF1895.2500000001
aF1902.5000000001
aF1909.7500000001
aF1917.0000000001
aF1924.2500000001
aF1931.5000000001
aF1938.7500000001
aF1946.2500000001
aF1953.2500000001
aF1960.5000000001
aF1967.7500000001
aF1975.0000000001
aF1982.0000000001
aF1989.2500000001
aF1996.7500000001
a.