(lp0
F7.7500000001
aF15.2500000001
aF23.0000000001
aF30.5000000001
aF38.0000000001
aF45.5000000001
aF53.0000000001
aF60.5000000001
aF68.0000000001
aF75.2500000001
aF82.5000000001
aF89.5000000001
aF96.7500000001
aF104.0000000001
aF111.2500000001
aF118.5000000001
aF126.0000000001
aF133.2500000001
aF140.7500000001
aF148.0000000001
aF155.2500000001
aF162.2500000001
aF169.5000000001
aF176.7500000001
aF184.0000000001
aF191.2500000001
aF198.5000000001
aF206.0000000001
aF213.2500000001
aF220.5000000001
aF227.5000000001
aF234.7500000001
aF241.7500000001
aF249.0000000001
aF256.2500000001
aF263.5000000001
aF270.7500000001
aF278.0000000001
aF285.2500000001
aF292.2500000001
aF299.5000000001
aF306.5000000001
aF313.7500000001
aF320.7500000001
aF328.0000000001
aF335.2500000001
aF342.5000000001
aF349.7500000001
aF357.0000000001
aF364.0000000001
aF371.2500000001
aF378.2500000001
aF385.5000000001
aF392.5000000001
aF399.7500000001
aF407.0000000001
aF414.2500000001
aF421.5000000001
aF428.7500000001
aF435.7500000001
aF442.7500000001
aF450.0000000001
aF457.0000000001
aF464.2500000001
aF471.5000000001
aF478.5000000001
aF485.7500000001
aF493.0000000001
aF500.0000000001
aF507.2500000001
aF514.2500000001
aF521.2500000001
aF528.5000000001
aF535.7500000001
aF542.7500000001
aF550.0000000001
aF557.2500000001
aF564.5000000001
aF571.5000000001
aF578.7500000001
aF585.7500000001
aF592.7500000001
aF600.0000000001
aF607.0000000001
aF614.2500000001
aF621.5000000001
aF628.7500000001
aF635.7500000001
aF643.0000000001
aF650.0000000001
aF657.0000000001
aF664.2500000001
aF671.2500000001
aF678.5000000001
aF685.5000000001
aF692.7500000001
aF699.7500000001
aF707.0000000001
aF714.0000000001
aF721.0000000001
aF728.0000000001
aF735.2500000001
aF742.2500000001
aF749.5000000001
aF756.5000000001
aF763.7500000001
aF770.7500000001
aF777.7500000001
aF784.7500000001
aF791.7500000001
aF799.0000000001
aF805.7500000001
aF813.0000000001
aF820.0000000001
aF827.0000000001
aF834.0000000001
aF841.0000000001
aF848.0000000001
aF855.0000000001
aF862.0000000001
aF869.0000000001
aF876.0000000001
aF883.0000000001
aF890.0000000001
aF897.0000000001
aF904.0000000001
aF911.0000000001
aF918.0000000001
aF925.0000000001
aF931.7500000001
aF938.7500000001
aF945.7500000001
aF952.7500000001
aF959.7500000001
aF966.7500000001
aF973.7500000001
aF980.7500000001
aF987.7500000001
aF994.7500000001
aF1001.7500000001
aF1008.7500000001
aF1015.7500000001
aF1022.7500000001
aF1029.7500000001
aF1036.7500000001
aF1043.7500000001
aF1050.7500000001
aF1057.7500000001
aF1064.5000000001
aF1071.5000000001
aF1078.5000000001
aF1085.5000000001
aF1092.5000000001
aF1099.5000000001
aF1106.5000000001
aF1113.7500000001
aF1120.7500000001
aF1127.7500000001
aF1134.7500000001
aF1141.5000000001
aF1148.5000000001
aF1155.5000000001
aF1162.7500000001
aF1169.7500000001
aF1176.7500000001
aF1183.7500000001
aF1190.7500000001
aF1197.7500000001
aF1204.7500000001
aF1211.7500000001
aF1218.7500000001
aF1226.0000000001
aF1233.0000000001
aF1240.0000000001
aF1247.2500000001
aF1254.2500000001
aF1261.2500000001
aF1268.5000000001
aF1275.5000000001
aF1282.5000000001
aF1289.5000000001
aF1296.7500000001
aF1303.7500000001
aF1311.0000000001
aF1318.0000000001
aF1325.2500000001
aF1332.2500000001
aF1339.2500000001
aF1346.5000000001
aF1353.5000000001
aF1360.5000000001
aF1367.7500000001
aF1374.7500000001
aF1382.0000000001
aF1389.2500000001
aF1396.2500000001
aF1403.2500000001
aF1410.5000000001
aF1417.5000000001
aF1424.5000000001
aF1431.7500000001
aF1438.7500000001
aF1446.0000000001
aF1453.2500000001
aF1460.5000000001
aF1467.5000000001
aF1474.7500000001
aF1481.7500000001
aF1488.7500000001
aF1496.0000000001
aF1503.0000000001
aF1510.2500000001
aF1517.5000000001
aF1524.7500000001
aF1531.7500000001
aF1539.0000000001
aF1546.0000000001
aF1553.0000000001
aF1560.2500000001
aF1567.2500000001
aF1574.5000000001
aF1581.7500000001
aF1588.7500000001
aF1596.0000000001
aF1603.2500000001
aF1610.2500000001
aF1617.5000000001
aF1624.5000000001
aF1631.7500000001
aF1638.7500000001
aF1646.0000000001
aF1653.2500000001
aF1660.5000000001
aF1667.5000000001
aF1674.7500000001
aF1681.7500000001
aF1689.0000000001
aF1696.0000000001
aF1703.2500000001
aF1710.2500000001
aF1717.5000000001
aF1724.7500000001
aF1732.0000000001
aF1739.0000000001
aF1746.2500000001
aF1753.2500000001
aF1760.5000000001
aF1767.5000000001
aF1774.7500000001
aF1781.7500000001
aF1789.0000000001
aF1796.5000000001
aF1803.7500000001
aF1811.0000000001
aF1818.0000000001
aF1825.2500000001
aF1832.5000000001
aF1839.5000000001
aF1846.7500000001
aF1854.0000000001
aF1861.2500000001
aF1868.7500000001
aF1876.0000000001
aF1883.2500000001
aF1890.2500000001
aF1897.5000000001
aF1904.7500000001
aF1912.0000000001
aF1919.2500000001
aF1926.5000000001
aF1934.0000000001
aF1941.2500000001
aF1948.5000000001
aF1955.7500000001
aF1963.0000000001
aF1970.2500000001
aF1977.2500000001
aF1984.5000000001
aF1991.7500000001
aF1999.2500000001
a.