(lp0
(dp1
S'ids'
p2
(lp3
F0.0
aF0.0
aF0.0
aF0.0
aF0.0
aF0.0
aF0.0
aF0.0
aF0.0
aF0.0
aF0.0
aF0.0
aF0.0
aF0.0
aF0.0
aF0.0
aF0.0
aF0.0
aF0.0
aF0.0
aF0.0
aF0.0
aF0.0
aF0.0
aF0.0
aF0.0
aF0.0
aF0.0
aF0.0
aF0.0
aF0.0
aF0.0
aF0.0
aF0.0
aF0.0
aF0.0
aF0.0
aF0.0
aF0.0
aF0.0
aF0.0
aF0.0
aF0.0
aF0.0
aF0.0
aF0.0
aF0.0
aF0.0
aF0.0
aF0.0
aF0.0
aF0.0
aF0.0
aF0.0
aF0.0
aF0.0
aF0.0
aF0.0
aF0.0
aF0.0
aF0.0
aF0.0
aF0.0
aF0.0
aF0.0
aF0.0
aF0.0
aF0.0
aF0.0
aF0.0
aF0.0
aF0.0
aF0.0
aF0.0
aF0.0
aF0.0
aF0.0
aF0.0
aF0.0
aF0.0
aF0.0
aF0.0
aF0.0
aF0.0
aF0.0
aF0.0
aF0.0
aF0.0
aF0.0
aF0.0
aF0.0
aF0.0
aF0.0
aF0.0
aF0.0
aF0.0
aF0.0
aF0.0
aF0.0
aF0.0
aF0.0
aF0.0
aF0.0
aF0.0
aF0.0
aF0.0
aF0.0
aF0.0
aF0.0
aF0.0
aF0.0
aF0.0
aF0.0
aF0.0
aF0.0
aF0.0
aF0.0
aF0.0
aF0.0
aF0.0
aF0.0
aF0.0
aF0.0
aF0.0
aF0.0
aF0.0
aF0.0
aF0.0
aF0.0
aF0.0
aF0.0
aF0.0
aF0.0
aF0.0
aF0.0
aF0.0
aF0.0
aF0.0
aF0.0
aF0.0
aF0.0
aF0.0
aF0.0
aF0.0
aF0.0
aF0.0
aF0.0
aF0.0
aF0.0
aF0.0
aF0.0
aF0.0
aF0.0
aF0.0
aF0.0
aF0.0
aF0.0
aF0.0
aF0.0
aF0.0
aF0.0
aF0.0
aF0.0
aF0.0
aF0.0
aF0.0
aF0.0
aF0.0
aF0.0
aF0.0
aF0.0
aF0.0
aF0.0
aF0.0
aF0.0
aF0.0
aF0.0
aF0.0
aF0.0
aF0.0
aF0.0
aF0.0
aF0.0
aF0.0
aF0.0
aF0.0
aF0.0
aF0.0
aF0.0
aF0.0
aF0.0
aF0.0
aF0.0
aF0.0
aF0.0
aF0.0
aF0.0
aF0.0
aF0.0
aF0.0
aF0.0
aF0.0
aF0.0
aF0.0
aF0.0
aF0.0
aF0.0
aF0.0
aF0.0
aF0.0
aF0.0
aF0.0
aF0.0
aF0.0
aF0.0
aF0.0
aF0.0
aF0.0
aF0.0
aF0.0
aF0.0
aF0.0
aF0.0
aF0.0
aF0.0
aF0.0
aF0.0
aF0.0
aF0.0
aF0.0
aF0.0
aF0.0
aF0.0
aF0.0
aF0.0
aF0.0
aF0.0
aF0.0
aF0.0
aF0.0
aF0.0
aF0.0
aF0.0
aF0.0
aF0.0
aF0.0
aF0.0
aF0.0
aF0.0
aF0.0
aF0.0
aF0.0
aF0.0
aF0.0
aF0.0
aF0.0
aF0.0
aF0.0
aF0.0
aF0.0
asS'times'
p4
(lp5
F7.7500000001
aF15.2500000001
aF23.0000000001
aF30.5000000001
aF38.0000000001
aF45.5000000001
aF53.0000000001
aF60.5000000001
aF68.0000000001
aF75.5000000001
aF83.0000000001
aF90.2500000001
aF97.7500000001
aF105.0000000001
aF112.5000000001
aF119.7500000001
aF127.5000000001
aF134.7500000001
aF142.2500000001
aF149.2500000001
aF156.5000000001
aF163.7500000001
aF171.2500000001
aF178.7500000001
aF186.2500000001
aF193.5000000001
aF201.2500000001
aF208.7500000001
aF216.2500000001
aF223.2500000001
aF230.7500000001
aF238.0000000001
aF245.5000000001
aF253.0000000001
aF260.0000000001
aF267.2500000001
aF274.7500000001
aF281.7500000001
aF289.2500000001
aF296.7500000001
aF304.0000000001
aF311.5000000001
aF319.0000000001
aF326.5000000001
aF334.0000000001
aF341.5000000001
aF348.5000000001
aF356.0000000001
aF363.2500000001
aF370.5000000001
aF378.0000000001
aF385.5000000001
aF393.0000000001
aF400.2500000001
aF407.5000000001
aF415.2500000001
aF422.2500000001
aF429.7500000001
aF437.2500000001
aF444.5000000001
aF452.0000000001
aF459.2500000001
aF466.7500000001
aF474.0000000001
aF481.5000000001
aF489.0000000001
aF496.2500000001
aF503.5000000001
aF511.0000000001
aF518.2500000001
aF525.7500000001
aF533.2500000001
aF540.5000000001
aF548.0000000001
aF555.5000000001
aF562.7500000001
aF570.0000000001
aF577.2500000001
aF584.7500000001
aF592.2500000001
aF599.5000000001
aF607.0000000001
aF614.2500000001
aF621.7500000001
aF629.2500000001
aF636.7500000001
aF644.0000000001
aF651.2500000001
aF658.7500000001
aF666.0000000001
aF673.5000000001
aF680.7500000001
aF688.2500000001
aF695.7500000001
aF703.5000000001
aF710.7500000001
aF718.0000000001
aF725.5000000001
aF732.7500000001
aF740.2500000001
aF747.5000000001
aF755.0000000001
aF762.5000000001
aF770.0000000001
aF777.5000000001
aF784.7500000001
aF792.2500000001
aF799.7500000001
aF807.0000000001
aF814.5000000001
aF822.0000000001
aF829.5000000001
aF837.0000000001
aF844.5000000001
aF851.7500000001
aF859.0000000001
aF866.5000000001
aF873.7500000001
aF881.2500000001
aF888.5000000001
aF895.5000000001
aF902.7500000001
aF909.7500000001
aF916.7500000001
aF924.2500000001
aF931.7500000001
aF939.0000000001
aF946.5000000001
aF953.7500000001
aF961.5000000001
aF969.0000000001
aF976.5000000001
aF984.0000000001
aF991.2500000001
aF998.7500000001
aF1006.0000000001
aF1013.5000000001
aF1021.0000000001
aF1028.2500000001
aF1035.5000000001
aF1042.7500000001
aF1050.2500000001
aF1057.5000000001
aF1065.0000000001
aF1072.2500000001
aF1079.7500000001
aF1087.2500000001
aF1094.2500000001
aF1101.5000000001
aF1108.7500000001
aF1116.2500000001
aF1123.7500000001
aF1131.0000000001
aF1138.5000000001
aF1146.0000000001
aF1153.2500000001
aF1160.7500000001
aF1168.2500000001
aF1175.5000000001
aF1183.0000000001
aF1190.2500000001
aF1197.5000000001
aF1204.7500000001
aF1212.2500000001
aF1219.7500000001
aF1227.0000000001
aF1234.5000000001
aF1241.7500000001
aF1249.2500000001
aF1256.7500000001
aF1263.7500000001
aF1271.0000000001
aF1278.5000000001
aF1286.0000000001
aF1293.2500000001
aF1300.7500000001
aF1308.2500000001
aF1315.2500000001
aF1322.2500000001
aF1329.2500000001
aF1336.7500000001
aF1344.0000000001
aF1351.5000000001
aF1358.7500000001
aF1366.2500000001
aF1373.5000000001
aF1381.2500000001
aF1388.7500000001
aF1396.0000000001
aF1403.2500000001
aF1410.7500000001
aF1418.0000000001
aF1425.5000000001
aF1433.0000000001
aF1440.2500000001
aF1447.7500000001
aF1455.2500000001
aF1462.7500000001
aF1470.2500000001
aF1477.5000000001
aF1485.0000000001
aF1492.5000000001
aF1499.7500000001
aF1507.2500000001
aF1514.7500000001
aF1521.7500000001
aF1529.0000000001
aF1536.5000000001
aF1543.7500000001
aF1551.0000000001
aF1558.5000000001
aF1566.0000000001
aF1573.2500000001
aF1580.5000000001
aF1588.0000000001
aF1595.7500000001
aF1603.2500000001
aF1610.2500000001
aF1617.7500000001
aF1625.0000000001
aF1632.5000000001
aF1640.0000000001
aF1647.2500000001
aF1655.0000000001
aF1662.2500000001
aF1669.7500000001
aF1677.2500000001
aF1684.5000000001
aF1692.0000000001
aF1699.5000000001
aF1706.7500000001
aF1714.2500000001
aF1721.5000000001
aF1728.5000000001
aF1735.7500000001
aF1743.0000000001
aF1750.2500000001
aF1757.5000000001
aF1765.0000000001
aF1772.2500000001
aF1779.7500000001
aF1787.0000000001
aF1794.5000000001
aF1802.2500000001
aF1809.7500000001
aF1817.2500000001
aF1824.5000000001
aF1831.7500000001
aF1839.2500000001
aF1846.7500000001
aF1854.2500000001
aF1861.5000000001
aF1868.5000000001
aF1875.5000000001
aF1882.7500000001
aF1890.0000000001
aF1897.5000000001
aF1904.7500000001
aF1912.2500000001
aF1919.5000000001
asa(dp6
g2
(lp7
F1.0
aF1.0
aF1.0
aF1.0
aF1.0
aF1.0
aF1.0
aF1.0
aF1.0
aF1.0
aF1.0
aF1.0
aF1.0
aF1.0
aF1.0
aF1.0
aF1.0
aF1.0
aF1.0
aF1.0
aF1.0
aF1.0
aF1.0
aF1.0
aF1.0
aF1.0
aF1.0
aF1.0
aF1.0
aF1.0
aF1.0
aF1.0
aF1.0
aF1.0
aF1.0
aF1.0
aF1.0
aF1.0
aF1.0
aF1.0
aF1.0
aF1.0
aF1.0
aF1.0
aF1.0
aF1.0
aF1.0
aF1.0
aF1.0
aF1.0
aF1.0
aF1.0
aF1.0
aF1.0
aF1.0
aF1.0
aF1.0
aF1.0
aF1.0
aF1.0
aF1.0
aF1.0
aF1.0
aF1.0
aF1.0
aF1.0
aF1.0
aF1.0
aF1.0
aF1.0
aF1.0
aF1.0
aF1.0
aF1.0
aF1.0
aF1.0
aF1.0
aF1.0
aF1.0
aF1.0
aF1.0
aF1.0
aF1.0
aF1.0
aF1.0
aF1.0
aF1.0
aF1.0
aF1.0
aF1.0
aF1.0
aF1.0
aF1.0
aF1.0
aF1.0
aF1.0
aF1.0
aF1.0
aF1.0
aF1.0
aF1.0
aF1.0
aF1.0
aF1.0
aF1.0
aF1.0
aF1.0
aF1.0
aF1.0
aF1.0
aF1.0
aF1.0
aF1.0
aF1.0
aF1.0
aF1.0
aF1.0
aF1.0
aF1.0
aF1.0
aF1.0
aF1.0
aF1.0
aF1.0
aF1.0
aF1.0
aF1.0
aF1.0
aF1.0
aF1.0
aF1.0
aF1.0
aF1.0
aF1.0
aF1.0
aF1.0
aF1.0
aF1.0
aF1.0
aF1.0
aF1.0
aF1.0
aF1.0
aF1.0
aF1.0
aF1.0
aF1.0
aF1.0
aF1.0
aF1.0
aF1.0
aF1.0
aF1.0
aF1.0
aF1.0
aF1.0
aF1.0
aF1.0
aF1.0
aF1.0
aF1.0
aF1.0
aF1.0
aF1.0
aF1.0
aF1.0
aF1.0
aF1.0
aF1.0
aF1.0
aF1.0
aF1.0
aF1.0
aF1.0
aF1.0
aF1.0
aF1.0
aF1.0
aF1.0
aF1.0
aF1.0
aF1.0
aF1.0
aF1.0
aF1.0
aF1.0
aF1.0
aF1.0
aF1.0
aF1.0
aF1.0
aF1.0
aF1.0
aF1.0
aF1.0
aF1.0
aF1.0
aF1.0
aF1.0
aF1.0
aF1.0
aF1.0
aF1.0
aF1.0
aF1.0
aF1.0
aF1.0
aF1.0
aF1.0
aF1.0
aF1.0
aF1.0
aF1.0
aF1.0
aF1.0
aF1.0
aF1.0
aF1.0
aF1.0
aF1.0
aF1.0
aF1.0
aF1.0
aF1.0
aF1.0
aF1.0
aF1.0
aF1.0
aF1.0
aF1.0
aF1.0
aF1.0
aF1.0
aF1.0
aF1.0
aF1.0
aF1.0
aF1.0
aF1.0
aF1.0
aF1.0
aF1.0
aF1.0
aF1.0
aF1.0
aF1.0
aF1.0
aF1.0
aF1.0
aF1.0
aF1.0
aF1.0
aF1.0
aF1.0
aF1.0
aF1.0
aF1.0
aF1.0
aF1.0
aF1.0
aF1.0
aF1.0
aF1.0
aF1.0
aF1.0
aF1.0
aF1.0
aF1.0
aF1.0
aF1.0
aF1.0
aF1.0
aF1.0
aF1.0
aF1.0
aF1.0
aF1.0
aF1.0
aF1.0
aF1.0
asg4
(lp8
F7.7500000001
aF15.2500000001
aF23.0000000001
aF30.5000000001
aF38.0000000001
aF45.5000000001
aF53.0000000001
aF60.5000000001
aF68.0000000001
aF75.5000000001
aF83.0000000001
aF90.2500000001
aF97.0000000001
aF104.0000000001
aF110.7500000001
aF117.5000000001
aF124.2500000001
aF130.5000000001
aF138.0000000001
aF144.2500000001
aF150.5000000001
aF156.7500000001
aF163.2500000001
aF170.0000000001
aF176.7500000001
aF183.7500000001
aF190.5000000001
aF197.5000000001
aF205.0000000001
aF211.7500000001
aF218.0000000001
aF224.2500000001
aF230.7500000001
aF237.5000000001
aF244.2500000001
aF251.2500000001
aF258.0000000001
aF264.5000000001
aF271.5000000001
aF278.5000000001
aF286.0000000001
aF292.7500000001
aF299.5000000001
aF306.2500000001
aF313.0000000001
aF320.0000000001
aF326.7500000001
aF333.2500000001
aF340.0000000001
aF347.7500000001
aF354.7500000001
aF361.5000000001
aF368.2500000001
aF375.0000000001
aF381.7500000001
aF388.7500000001
aF395.5000000001
aF402.0000000001
aF408.2500000001
aF415.7500000001
aF422.2500000001
aF428.7500000001
aF435.0000000001
aF441.5000000001
aF448.2500000001
aF455.0000000001
aF461.7500000001
aF468.7500000001
aF475.5000000001
aF482.2500000001
aF489.2500000001
aF496.0000000001
aF502.2500000001
aF508.7500000001
aF515.5000000001
aF522.2500000001
aF529.0000000001
aF536.0000000001
aF542.7500000001
aF549.5000000001
aF556.2500000001
aF563.0000000001
aF569.7500000001
aF576.2500000001
aF582.7500000001
aF589.5000000001
aF596.2500000001
aF603.2500000001
aF610.0000000001
aF616.5000000001
aF623.2500000001
aF629.7500000001
aF636.7500000001
aF643.2500000001
aF649.7500000001
aF656.5000000001
aF663.2500000001
aF670.2500000001
aF677.0000000001
aF683.5000000001
aF690.0000000001
aF696.2500000001
aF703.0000000001
aF709.5000000001
aF716.2500000001
aF722.7500000001
aF729.7500000001
aF736.5000000001
aF743.2500000001
aF750.2500000001
aF757.2500000001
aF764.2500000001
aF771.5000000001
aF778.2500000001
aF785.0000000001
aF791.7500000001
aF798.7500000001
aF805.5000000001
aF812.2500000001
aF819.2500000001
aF826.5000000001
aF833.5000000001
aF841.0000000001
aF847.7500000001
aF854.5000000001
aF861.2500000001
aF868.0000000001
aF875.0000000001
aF881.7500000001
aF888.7500000001
aF895.7500000001
aF902.7500000001
aF909.7500000001
aF916.7500000001
aF923.5000000001
aF930.2500000001
aF937.2500000001
aF944.0000000001
aF950.7500000001
aF957.7500000001
aF964.7500000001
aF972.0000000001
aF979.5000000001
aF986.5000000001
aF993.2500000001
aF1000.0000000001
aF1006.7500000001
aF1013.7500000001
aF1020.5000000001
aF1027.2500000001
aF1034.5000000001
aF1041.7500000001
aF1049.2500000001
aF1056.0000000001
aF1062.7500000001
aF1069.5000000001
aF1076.2500000001
aF1083.2500000001
aF1089.7500000001
aF1096.5000000001
aF1103.0000000001
aF1109.5000000001
aF1115.7500000001
aF1122.5000000001
aF1129.2500000001
aF1136.0000000001
aF1142.5000000001
aF1149.5000000001
aF1156.2500000001
aF1163.0000000001
aF1170.0000000001
aF1176.7500000001
aF1183.5000000001
aF1190.2500000001
aF1196.7500000001
aF1203.2500000001
aF1209.7500000001
aF1216.5000000001
aF1223.5000000001
aF1230.2500000001
aF1237.2500000001
aF1244.0000000001
aF1250.5000000001
aF1257.0000000001
aF1263.2500000001
aF1269.7500000001
aF1276.2500000001
aF1283.0000000001
aF1290.0000000001
aF1297.0000000001
aF1303.5000000001
aF1310.2500000001
aF1316.7500000001
aF1323.2500000001
aF1329.7500000001
aF1336.2500000001
aF1342.7500000001
aF1349.5000000001
aF1356.5000000001
aF1363.2500000001
aF1370.0000000001
aF1376.7500000001
aF1383.0000000001
aF1389.5000000001
aF1395.7500000001
aF1402.2500000001
aF1409.0000000001
aF1415.7500000001
aF1422.5000000001
aF1429.5000000001
aF1436.2500000001
aF1443.2500000001
aF1450.2500000001
aF1457.2500000001
aF1464.2500000001
aF1471.5000000001
aF1478.2500000001
aF1485.0000000001
aF1491.7500000001
aF1498.7500000001
aF1505.5000000001
aF1512.5000000001
aF1519.5000000001
aF1526.5000000001
aF1533.5000000001
aF1540.7500000001
aF1547.5000000001
aF1554.2500000001
aF1561.0000000001
aF1568.0000000001
aF1574.7500000001
aF1581.7500000001
aF1588.7500000001
aF1595.5000000001
aF1602.5000000001
aF1609.7500000001
aF1616.5000000001
aF1623.2500000001
aF1630.2500000001
aF1637.0000000001
aF1643.7500000001
aF1650.7500000001
aF1657.7500000001
aF1664.7500000001
aF1672.0000000001
aF1679.2500000001
aF1686.0000000001
aF1692.7500000001
aF1699.5000000001
aF1706.5000000001
aF1713.2500000001
aF1720.2500000001
aF1727.2500000001
aF1734.2500000001
aF1741.5000000001
aF1748.5000000001
aF1755.5000000001
aF1762.2500000001
aF1769.0000000001
aF1776.0000000001
aF1782.7500000001
aF1789.7500000001
aF1796.7500000001
aF1803.7500000001
aF1811.0000000001
aF1818.0000000001
aF1824.7500000001
aF1831.5000000001
aF1838.2500000001
aF1845.2500000001
aF1852.0000000001
aF1859.0000000001
aF1865.7500000001
aF1872.5000000001
aF1879.2500000001
aF1886.2500000001
aF1893.0000000001
aF1899.7500000001
aF1906.5000000001
aF1913.5000000001
asa.