(lp0
F7.7500000001
aF15.2500000001
aF23.0000000001
aF30.5000000001
aF38.0000000001
aF45.5000000001
aF53.0000000001
aF60.5000000001
aF68.0000000001
aF74.0000000001
aF79.5000000001
aF84.5000000001
aF89.2500000001
aF93.7500000001
aF98.5000000001
aF103.2500000001
aF107.7500000001
aF112.5000000001
aF118.0000000001
aF124.2500000001
aF131.0000000001
aF138.5000000001
aF144.2500000001
aF149.5000000001
aF154.5000000001
aF158.5000000001
aF162.7500000001
aF167.0000000001
aF171.0000000001
aF175.0000000001
aF178.7500000001
aF183.0000000001
aF187.0000000001
aF191.0000000001
aF195.2500000001
aF199.7500000001
aF203.7500000001
aF208.2500000001
aF212.2500000001
aF216.2500000001
aF220.2500000001
aF224.2500000001
aF228.0000000001
aF231.7500000001
aF235.7500000001
aF239.7500000001
aF243.2500000001
aF246.5000000001
aF250.0000000001
aF254.0000000001
aF257.2500000001
aF260.7500000001
aF264.5000000001
aF268.5000000001
aF272.5000000001
aF276.5000000001
aF280.2500000001
aF284.0000000001
aF287.5000000001
aF291.0000000001
aF294.7500000001
aF298.5000000001
aF302.2500000001
aF306.5000000001
aF309.7500000001
aF313.0000000001
aF316.7500000001
aF320.5000000001
aF324.0000000001
aF327.5000000001
aF331.5000000001
aF335.5000000001
aF339.5000000001
aF343.2500000001
aF347.2500000001
aF351.2500000001
aF355.2500000001
aF359.0000000001
aF363.0000000001
aF366.5000000001
aF369.5000000001
aF373.0000000001
aF376.7500000001
aF380.0000000001
aF383.2500000001
aF387.0000000001
aF390.2500000001
aF393.5000000001
aF397.2500000001
aF400.7500000001
aF404.5000000001
aF407.7500000001
aF411.7500000001
aF416.0000000001
aF420.2500000001
aF424.0000000001
aF427.7500000001
aF431.2500000001
aF434.5000000001
aF438.2500000001
aF441.7500000001
aF445.5000000001
aF449.0000000001
aF454.5000000001
aF458.2500000001
aF461.2500000001
aF465.0000000001
aF468.2500000001
aF472.0000000001
aF475.2500000001
aF478.7500000001
aF482.2500000001
aF485.7500000001
aF489.0000000001
aF492.7500000001
aF496.2500000001
aF500.0000000001
aF503.2500000001
aF506.5000000001
aF510.0000000001
aF513.5000000001
aF516.7500000001
aF520.2500000001
aF523.7500000001
aF527.2500000001
aF530.5000000001
aF534.5000000001
aF538.5000000001
aF542.5000000001
aF547.0000000001
aF550.7500000001
aF554.2500000001
aF557.5000000001
aF561.0000000001
aF564.5000000001
aF568.0000000001
aF571.2500000001
aF575.0000000001
aF578.2500000001
aF581.7500000001
aF585.0000000001
aF588.2500000001
aF591.7500000001
aF595.0000000001
aF598.7500000001
aF602.2500000001
aF606.5000000001
aF610.2500000001
aF614.2500000001
aF617.7500000001
aF621.2500000001
aF624.7500000001
aF628.2500000001
aF632.2500000001
aF635.7500000001
aF641.0000000001
aF644.7500000001
aF648.2500000001
aF651.7500000001
aF655.0000000001
aF658.2500000001
aF661.5000000001
aF665.2500000001
aF668.2500000001
aF672.0000000001
aF675.2500000001
aF680.5000000001
aF684.5000000001
aF687.7500000001
aF691.2500000001
aF694.5000000001
aF699.7500000001
aF704.0000000001
aF708.5000000001
aF712.0000000001
aF715.7500000001
aF719.2500000001
aF722.5000000001
aF725.7500000001
aF729.5000000001
aF733.0000000001
aF736.7500000001
aF740.2500000001
aF744.0000000001
aF748.2500000001
aF752.2500000001
aF756.5000000001
aF760.0000000001
aF763.7500000001
aF767.5000000001
aF771.2500000001
aF775.0000000001
aF778.2500000001
aF782.0000000001
aF789.2500000001
aF793.0000000001
aF796.7500000001
aF801.2500000001
aF805.0000000001
aF808.2500000001
aF811.5000000001
aF815.5000000001
aF819.0000000001
aF822.2500000001
aF826.0000000001
aF828.7500000001
aF832.0000000001
aF835.2500000001
aF838.7500000001
aF842.0000000001
aF845.7500000001
aF849.2500000001
aF853.5000000001
aF857.2500000001
aF861.2500000001
aF865.2500000001
aF868.7500000001
aF872.2500000001
aF876.0000000001
aF879.5000000001
aF883.2500000001
aF886.7500000001
aF891.0000000001
aF894.7500000001
aF898.2500000001
aF902.0000000001
aF905.7500000001
aF909.7500000001
aF913.7500000001
aF917.2500000001
aF920.7500000001
aF924.5000000001
aF928.5000000001
aF932.2500000001
aF935.7500000001
aF939.2500000001
aF942.7500000001
aF946.5000000001
aF950.5000000001
aF954.0000000001
aF957.7500000001
aF962.0000000001
aF965.2500000001
aF968.7500000001
aF972.2500000001
aF976.0000000001
aF979.5000000001
aF982.7500000001
aF986.5000000001
aF990.2500000001
aF993.7500000001
aF997.2500000001
aF1001.0000000001
aF1005.2500000001
aF1009.0000000001
aF1012.7500000001
aF1016.2500000001
aF1020.0000000001
aF1024.2500000001
aF1027.5000000001
aF1031.0000000001
aF1034.5000000001
aF1038.5000000001
aF1041.7500000001
aF1045.7500000001
aF1049.7500000001
aF1053.5000000001
aF1057.2500000001
aF1060.5000000001
aF1064.2500000001
aF1067.7500000001
aF1071.7500000001
aF1075.2500000001
aF1078.7500000001
aF1082.2500000001
aF1085.7500000001
aF1089.5000000001
aF1092.7500000001
aF1096.7500000001
aF1101.2500000001
aF1104.7500000001
aF1108.7500000001
aF1112.0000000001
aF1116.2500000001
aF1120.0000000001
aF1123.5000000001
aF1126.7500000001
aF1130.5000000001
aF1133.7500000001
aF1137.2500000001
aF1141.0000000001
aF1145.5000000001
aF1149.5000000001
aF1153.0000000001
aF1156.2500000001
aF1160.2500000001
aF1164.7500000001
aF1168.5000000001
aF1172.0000000001
aF1176.2500000001
aF1180.0000000001
aF1184.0000000001
aF1187.2500000001
aF1190.7500000001
aF1194.2500000001
aF1198.2500000001
aF1201.5000000001
aF1205.2500000001
aF1208.5000000001
aF1213.2500000001
aF1217.0000000001
aF1220.5000000001
aF1224.2500000001
aF1228.5000000001
aF1232.2500000001
aF1235.2500000001
aF1238.7500000001
aF1242.2500000001
aF1245.5000000001
aF1249.2500000001
aF1252.5000000001
aF1260.0000000001
aF1264.2500000001
aF1267.7500000001
aF1271.7500000001
aF1275.2500000001
aF1278.5000000001
aF1282.2500000001
aF1285.5000000001
aF1289.2500000001
aF1292.7500000001
aF1297.7500000001
aF1301.7500000001
aF1305.0000000001
aF1308.5000000001
aF1311.7500000001
aF1315.5000000001
aF1319.0000000001
aF1323.0000000001
aF1327.0000000001
aF1331.0000000001
aF1334.5000000001
aF1337.7500000001
aF1341.5000000001
aF1344.7500000001
aF1348.7500000001
aF1353.2500000001
aF1357.0000000001
aF1360.7500000001
aF1369.2500000001
aF1373.0000000001
aF1377.0000000001
aF1381.0000000001
aF1384.7500000001
aF1388.2500000001
aF1391.5000000001
aF1395.0000000001
aF1398.2500000001
aF1401.7500000001
aF1405.2500000001
aF1408.5000000001
aF1412.0000000001
aF1415.5000000001
aF1419.0000000001
aF1422.2500000001
aF1426.0000000001
aF1429.5000000001
aF1433.5000000001
aF1437.0000000001
aF1442.2500000001
aF1446.0000000001
aF1449.2500000001
aF1456.0000000001
aF1459.5000000001
aF1462.7500000001
aF1466.2500000001
aF1469.5000000001
aF1473.2500000001
aF1476.7500000001
aF1482.0000000001
aF1486.0000000001
aF1489.0000000001
aF1492.7500000001
aF1496.2500000001
aF1504.7500000001
aF1508.5000000001
aF1512.0000000001
aF1516.0000000001
aF1519.5000000001
aF1523.0000000001
aF1526.5000000001
aF1529.7500000001
aF1533.0000000001
aF1536.5000000001
aF1539.7500000001
aF1543.7500000001
aF1551.7500000001
aF1555.7500000001
aF1559.2500000001
aF1563.0000000001
aF1566.7500000001
aF1571.7500000001
aF1576.0000000001
aF1579.2500000001
aF1582.5000000001
aF1586.0000000001
aF1590.5000000001
aF1594.7500000001
aF1598.2500000001
aF1602.0000000001
aF1605.7500000001
aF1610.7500000001
aF1615.2500000001
aF1619.2500000001
aF1622.5000000001
aF1626.0000000001
aF1629.5000000001
aF1632.7500000001
aF1636.2500000001
aF1640.0000000001
aF1643.5000000001
aF1646.2500000001
aF1650.0000000001
aF1653.2500000001
aF1656.7500000001
aF1660.5000000001
aF1664.0000000001
aF1666.7500000001
aF1670.5000000001
aF1674.0000000001
aF1677.5000000001
aF1681.0000000001
aF1684.7500000001
aF1687.5000000001
aF1691.2500000001
aF1694.7500000001
aF1698.0000000001
aF1701.7500000001
aF1705.2500000001
aF1708.2500000001
aF1712.0000000001
aF1715.5000000001
aF1718.5000000001
aF1722.2500000001
aF1726.0000000001
aF1730.0000000001
aF1734.2500000001
aF1737.7500000001
aF1740.7500000001
aF1744.7500000001
aF1748.7500000001
aF1752.2500000001
aF1755.7500000001
aF1759.5000000001
aF1763.2500000001
aF1766.7500000001
aF1770.0000000001
aF1773.7500000001
aF1777.7500000001
aF1782.0000000001
aF1785.7500000001
aF1790.0000000001
aF1794.2500000001
aF1798.2500000001
aF1802.5000000001
aF1806.7500000001
aF1810.7500000001
aF1814.7500000001
aF1818.7500000001
aF1822.7500000001
aF1827.0000000001
aF1830.7500000001
aF1834.7500000001
aF1839.0000000001
aF1843.0000000001
aF1847.0000000001
aF1851.2500000001
aF1855.7500000001
aF1860.5000000001
aF1865.2500000001
aF1870.0000000001
aF1874.7500000001
aF1879.2500000001
aF1883.2500000001
aF1887.7500000001
aF1892.2500000001
aF1896.2500000001
aF1900.5000000001
aF1904.7500000001
aF1908.7500000001
aF1913.2500000001
aF1917.7500000001
aF1922.5000000001
aF1927.5000000001
aF1933.0000000001
aF1938.5000000001
aF1944.0000000001
aF1948.7500000001
aF1953.2500000001
aF1958.0000000001
aF1962.5000000001
aF1966.5000000001
aF1971.2500000001
aF1975.7500000001
aF1980.0000000001
aF1984.5000000001
aF1989.7500000001
aF1994.7500000001
a.