(lp0
F7.7500000001
aF33.0000000001
aF43.0000000001
aF52.0000000001
aF59.7500000001
aF67.5000000001
aF75.2500000001
aF82.7500000001
aF90.0000000001
aF97.0000000001
aF104.2500000001
aF111.2500000001
aF118.2500000001
aF125.0000000001
aF132.0000000001
aF138.7500000001
aF145.5000000001
aF152.5000000001
aF159.2500000001
aF166.0000000001
aF172.7500000001
aF179.5000000001
aF186.2500000001
aF193.0000000001
aF200.0000000001
aF206.7500000001
aF213.2500000001
aF219.5000000001
aF225.7500000001
aF231.7500000001
aF237.2500000001
aF242.7500000001
aF248.2500000001
aF253.5000000001
aF258.7500000001
aF263.2500000001
aF269.2500000001
aF274.5000000001
aF280.0000000001
aF285.2500000001
aF290.7500000001
aF296.0000000001
aF301.5000000001
aF305.7500000001
aF311.7500000001
aF317.5000000001
aF323.0000000001
aF328.5000000001
aF334.2500000001
aF339.7500000001
aF345.5000000001
aF351.2500000001
aF356.7500000001
aF362.7500000001
aF368.5000000001
aF374.5000000001
aF380.2500000001
aF386.5000000001
aF392.5000000001
aF398.7500000001
aF404.7500000001
aF411.0000000001
aF417.2500000001
aF423.2500000001
aF429.5000000001
aF435.7500000001
aF441.7500000001
aF447.7500000001
aF453.5000000001
aF459.5000000001
aF465.2500000001
aF471.0000000001
aF476.7500000001
aF482.5000000001
aF488.0000000001
aF493.7500000001
aF499.5000000001
aF505.0000000001
aF511.0000000001
aF517.0000000001
aF522.7500000001
aF528.7500000001
aF534.7500000001
aF540.5000000001
aF546.2500000001
aF552.0000000001
aF557.7500000001
aF563.7500000001
aF569.5000000001
aF575.2500000001
aF581.0000000001
aF586.7500000001
aF592.5000000001
aF598.0000000001
aF603.7500000001
aF609.2500000001
aF615.0000000001
aF620.7500000001
aF626.5000000001
aF632.2500000001
aF638.2500000001
aF644.0000000001
aF650.0000000001
aF656.0000000001
aF661.7500000001
aF667.7500000001
aF673.7500000001
aF679.7500000001
aF685.7500000001
aF691.5000000001
aF697.7500000001
aF703.7500000001
aF709.7500000001
aF715.7500000001
aF722.0000000001
aF728.0000000001
aF734.0000000001
aF740.2500000001
aF746.2500000001
aF752.5000000001
aF759.0000000001
aF765.2500000001
aF771.5000000001
aF778.0000000001
aF784.2500000001
aF790.7500000001
aF797.2500000001
aF803.5000000001
aF809.7500000001
aF816.0000000001
aF822.2500000001
aF828.5000000001
aF834.7500000001
aF841.2500000001
aF847.2500000001
aF853.5000000001
aF859.7500000001
aF866.2500000001
aF872.5000000001
aF879.0000000001
aF885.2500000001
aF891.2500000001
aF897.5000000001
aF903.5000000001
aF909.7500000001
aF915.7500000001
aF922.0000000001
aF928.0000000001
aF934.2500000001
aF940.5000000001
aF946.5000000001
aF953.0000000001
aF959.2500000001
aF965.5000000001
aF972.0000000001
aF978.2500000001
aF984.7500000001
aF991.0000000001
aF997.5000000001
a.