(lp0
F3.0000000001
aF6.7500000001
aF10.2500000001
aF14.0000000001
aF17.7500000001
aF21.2500000001
aF24.5000000001
aF28.2500000001
aF31.7500000001
aF39.2500000001
aF43.2500000001
aF46.7500000001
aF50.2500000001
aF54.0000000001
aF57.7500000001
aF61.0000000001
aF64.7500000001
aF68.2500000001
aF72.2500000001
aF76.2500000001
aF79.7500000001
aF83.5000000001
aF87.0000000001
aF90.7500000001
aF94.2500000001
aF97.7500000001
aF101.2500000001
aF105.0000000001
aF108.5000000001
aF112.2500000001
aF115.2500000001
aF118.5000000001
aF122.5000000001
aF126.0000000001
aF129.5000000001
aF133.0000000001
aF136.5000000001
aF140.0000000001
aF144.0000000001
aF151.5000000001
aF154.7500000001
aF158.7500000001
aF162.5000000001
aF166.0000000001
aF169.7500000001
aF173.2500000001
aF176.7500000001
aF180.2500000001
aF184.0000000001
aF187.7500000001
aF191.7500000001
aF195.2500000001
aF198.7500000001
aF202.2500000001
aF205.7500000001
aF209.2500000001
aF212.7500000001
aF216.5000000001
aF221.0000000001
aF224.5000000001
aF228.2500000001
aF231.7500000001
aF235.5000000001
aF239.7500000001
aF243.2500000001
aF246.7500000001
aF250.5000000001
aF254.5000000001
aF258.5000000001
aF262.0000000001
aF265.5000000001
aF269.2500000001
aF272.7500000001
aF276.2500000001
aF280.2500000001
aF284.2500000001
aF288.0000000001
aF294.7500000001
aF298.5000000001
aF302.5000000001
aF306.5000000001
aF310.0000000001
aF313.7500000001
aF317.5000000001
aF321.0000000001
aF324.7500000001
aF328.2500000001
aF332.0000000001
aF336.5000000001
aF340.5000000001
aF344.2500000001
aF347.5000000001
aF351.5000000001
aF356.0000000001
aF360.2500000001
aF363.7500000001
aF367.0000000001
aF371.0000000001
aF375.2500000001
aF380.0000000001
aF383.5000000001
aF387.0000000001
aF390.7500000001
aF394.5000000001
aF398.0000000001
aF401.7500000001
aF405.5000000001
aF410.0000000001
aF413.7500000001
aF418.0000000001
aF421.2500000001
aF425.2500000001
aF428.7500000001
aF432.5000000001
aF435.7500000001
aF439.2500000001
aF443.5000000001
aF447.7500000001
aF451.7500000001
aF455.5000000001
aF459.0000000001
aF462.2500000001
aF466.2500000001
aF469.7500000001
aF474.7500000001
aF479.0000000001
aF482.5000000001
aF486.5000000001
aF489.7500000001
aF493.0000000001
aF496.7500000001
aF500.0000000001
aF503.5000000001
aF507.0000000001
aF510.5000000001
aF513.5000000001
aF517.2500000001
aF521.0000000001
aF524.0000000001
aF527.7500000001
aF531.0000000001
aF537.7500000001
aF541.5000000001
aF545.2500000001
aF549.2500000001
aF553.2500000001
aF557.0000000001
aF560.5000000001
aF564.0000000001
aF567.7500000001
aF571.7500000001
aF575.7500000001
aF579.5000000001
aF583.5000000001
aF587.7500000001
aF591.7500000001
aF595.7500000001
aF599.7500000001
aF604.0000000001
aF608.0000000001
aF612.2500000001
aF616.5000000001
aF620.7500000001
aF624.7500000001
aF629.2500000001
aF633.0000000001
aF637.7500000001
aF642.0000000001
aF646.5000000001
aF651.0000000001
aF655.5000000001
aF660.0000000001
aF664.2500000001
aF669.0000000001
aF673.5000000001
aF678.0000000001
aF682.7500000001
aF687.5000000001
aF692.0000000001
aF696.7500000001
aF701.5000000001
aF706.0000000001
aF711.0000000001
aF715.7500000001
aF720.7500000001
aF725.5000000001
aF730.2500000001
aF735.5000000001
aF740.7500000001
aF745.7500000001
aF750.7500000001
aF755.7500000001
aF761.0000000001
aF766.2500000001
aF771.5000000001
aF776.5000000001
aF780.7500000001
aF786.7500000001
aF792.0000000001
aF797.5000000001
aF802.7500000001
aF808.0000000001
aF813.5000000001
aF817.5000000001
aF823.5000000001
aF829.0000000001
aF834.5000000001
aF839.7500000001
aF845.0000000001
aF850.0000000001
aF854.5000000001
aF860.2500000001
aF865.7500000001
aF871.0000000001
aF876.2500000001
aF881.2500000001
aF885.7500000001
aF891.7500000001
aF897.0000000001
aF902.5000000001
aF907.7500000001
aF913.2500000001
aF918.5000000001
aF924.0000000001
aF928.2500000001
aF934.2500000001
aF939.5000000001
aF945.0000000001
aF950.2500000001
aF955.7500000001
aF961.0000000001
aF965.2500000001
aF971.0000000001
aF976.5000000001
aF982.0000000001
aF987.2500000001
aF992.5000000001
aF997.7500000001
aF1002.0000000001
aF1008.0000000001
aF1013.5000000001
aF1018.7500000001
aF1024.0000000001
aF1029.5000000001
aF1034.5000000001
aF1038.7500000001
aF1044.5000000001
aF1050.0000000001
aF1055.2500000001
aF1060.5000000001
aF1065.5000000001
aF1069.7500000001
aF1075.7500000001
aF1081.2500000001
aF1086.5000000001
aF1091.7500000001
aF1096.7500000001
aF1101.0000000001
aF1107.0000000001
aF1112.5000000001
aF1117.7500000001
aF1123.0000000001
aF1128.0000000001
aF1132.2500000001
aF1138.2500000001
aF1143.7500000001
aF1149.2500000001
aF1154.5000000001
aF1160.0000000001
aF1165.2500000001
aF1170.7500000001
aF1175.2500000001
aF1181.0000000001
aF1186.5000000001
aF1192.0000000001
aF1197.5000000001
aF1203.0000000001
aF1208.5000000001
aF1214.0000000001
aF1219.5000000001
aF1225.0000000001
aF1230.5000000001
aF1236.2500000001
aF1241.7500000001
aF1247.2500000001
aF1252.5000000001
aF1258.2500000001
aF1263.7500000001
aF1268.0000000001
aF1274.2500000001
aF1280.0000000001
aF1285.5000000001
aF1291.2500000001
aF1296.7500000001
aF1302.5000000001
aF1308.0000000001
aF1313.5000000001
aF1318.7500000001
aF1324.7500000001
aF1330.2500000001
aF1336.0000000001
aF1341.7500000001
aF1347.2500000001
aF1353.0000000001
aF1359.0000000001
aF1364.7500000001
aF1370.5000000001
aF1376.2500000001
aF1382.2500000001
aF1388.0000000001
aF1393.5000000001
aF1399.5000000001
aF1405.5000000001
aF1411.2500000001
aF1417.2500000001
aF1423.0000000001
aF1429.0000000001
aF1434.7500000001
aF1440.7500000001
aF1446.5000000001
aF1452.5000000001
aF1458.2500000001
aF1464.2500000001
aF1470.2500000001
aF1476.0000000001
aF1482.0000000001
aF1488.0000000001
aF1494.0000000001
aF1500.0000000001
aF1506.0000000001
aF1512.0000000001
aF1518.0000000001
aF1524.0000000001
aF1529.7500000001
aF1535.7500000001
aF1541.7500000001
aF1547.5000000001
aF1553.5000000001
aF1559.5000000001
aF1565.2500000001
aF1571.2500000001
aF1577.2500000001
aF1583.2500000001
aF1589.2500000001
aF1595.2500000001
aF1601.2500000001
aF1607.5000000001
aF1613.5000000001
aF1619.5000000001
aF1625.7500000001
aF1631.7500000001
aF1637.7500000001
aF1643.7500000001
aF1649.7500000001
aF1655.7500000001
aF1661.7500000001
aF1667.7500000001
aF1673.5000000001
aF1679.5000000001
aF1685.5000000001
aF1691.5000000001
aF1697.5000000001
aF1703.5000000001
aF1709.5000000001
aF1715.5000000001
aF1721.5000000001
aF1727.7500000001
aF1733.7500000001
aF1739.7500000001
aF1745.7500000001
aF1752.0000000001
aF1758.0000000001
aF1764.2500000001
aF1770.5000000001
aF1777.0000000001
aF1783.2500000001
aF1789.5000000001
aF1796.0000000001
aF1802.2500000001
aF1808.5000000001
aF1815.0000000001
aF1821.5000000001
aF1828.0000000001
aF1834.5000000001
aF1841.0000000001
aF1847.5000000001
aF1854.2500000001
aF1860.7500000001
aF1867.2500000001
aF1874.0000000001
aF1880.5000000001
aF1887.0000000001
aF1893.7500000001
aF1900.5000000001
aF1907.2500000001
aF1913.7500000001
aF1920.5000000001
aF1927.2500000001
aF1934.0000000001
aF1940.7500000001
aF1947.2500000001
aF1954.0000000001
aF1960.7500000001
aF1967.5000000001
aF1974.5000000001
aF1981.2500000001
aF1988.0000000001
aF1994.7500000001
a.