(lp0
F677.5000000001
aF683.5000000001
aF689.5000000001
aF695.5000000001
aF701.5000000001
aF707.5000000001
aF713.5000000001
aF719.5000000001
aF725.5000000001
aF731.5000000001
aF737.2500000001
aF743.2500000001
aF749.2500000001
aF755.2500000001
aF761.2500000001
aF767.2500000001
aF773.0000000001
aF779.0000000001
aF785.0000000001
aF791.0000000001
aF796.7500000001
aF802.7500000001
aF808.7500000001
aF814.5000000001
aF820.2500000001
aF826.2500000001
aF832.2500000001
aF838.2500000001
aF844.2500000001
aF850.0000000001
aF855.7500000001
aF861.5000000001
aF867.5000000001
aF873.2500000001
aF879.2500000001
aF885.2500000001
aF891.0000000001
aF897.0000000001
aF903.0000000001
aF909.0000000001
aF915.0000000001
aF921.2500000001
aF927.2500000001
aF933.2500000001
aF939.0000000001
aF945.0000000001
aF951.0000000001
aF957.0000000001
aF963.0000000001
aF968.7500000001
aF974.7500000001
aF980.7500000001
aF986.5000000001
aF992.2500000001
aF998.2500000001
a.