(lp0
F7.7500000001
aF32.5000000001
aF41.5000000001
aF44.7500000001
aF52.5000000001
aF59.2500000001
aF65.2500000001
aF71.2500000001
aF77.0000000001
aF82.5000000001
aF88.2500000001
aF94.0000000001
aF99.5000000001
aF105.0000000001
aF110.2500000001
aF116.2500000001
aF121.7500000001
aF127.2500000001
aF133.0000000001
aF138.5000000001
aF144.0000000001
aF149.5000000001
aF154.7500000001
aF160.5000000001
aF166.0000000001
aF171.5000000001
aF175.5000000001
aF181.7500000001
aF187.2500000001
aF192.7500000001
aF198.0000000001
aF203.7500000001
aF209.0000000001
aF214.2500000001
aF218.2500000001
aF224.5000000001
aF230.0000000001
aF235.5000000001
aF240.7500000001
aF246.2500000001
aF251.5000000001
aF255.5000000001
aF261.5000000001
aF267.0000000001
aF272.5000000001
aF277.7500000001
aF283.2500000001
aF288.2500000001
aF293.2500000001
aF299.0000000001
aF304.2500000001
aF309.5000000001
aF315.0000000001
aF320.0000000001
aF324.5000000001
aF330.5000000001
aF336.0000000001
aF341.2500000001
aF346.5000000001
aF351.5000000001
aF356.0000000001
aF362.0000000001
aF367.2500000001
aF372.7500000001
aF378.0000000001
aF383.0000000001
aF387.5000000001
aF393.2500000001
aF398.7500000001
aF404.0000000001
aF409.5000000001
aF414.5000000001
aF419.0000000001
aF424.7500000001
aF430.2500000001
aF435.5000000001
aF440.7500000001
aF445.7500000001
aF451.0000000001
aF456.5000000001
aF461.7500000001
aF467.0000000001
aF472.2500000001
aF477.5000000001
aF482.0000000001
aF487.0000000001
aF492.7500000001
aF498.2500000001
aF503.5000000001
aF508.7500000001
aF513.7500000001
aF518.7500000001
aF524.2500000001
aF529.5000000001
aF535.0000000001
aF540.2500000001
aF545.5000000001
aF550.2500000001
aF555.7500000001
aF561.2500000001
aF566.5000000001
aF571.7500000001
aF576.7500000001
aF581.5000000001
aF587.2500000001
aF592.5000000001
aF597.7500000001
aF602.7500000001
aF607.5000000001
aF613.0000000001
aF618.2500000001
aF623.5000000001
aF628.7500000001
aF634.0000000001
aF639.0000000001
aF644.2500000001
aF649.5000000001
aF654.7500000001
aF660.0000000001
aF664.0000000001
aF669.7500000001
aF675.2500000001
aF680.2500000001
aF685.5000000001
aF689.5000000001
aF695.2500000001
aF700.5000000001
aF705.5000000001
aF710.7500000001
aF714.7500000001
aF720.5000000001
aF725.5000000001
aF730.7500000001
aF735.5000000001
aF740.2500000001
aF745.5000000001
aF750.7500000001
aF755.7500000001
aF760.7500000001
aF765.7500000001
aF770.7500000001
aF775.7500000001
aF780.7500000001
aF785.7500000001
aF790.7500000001
aF796.0000000001
aF801.0000000001
aF805.0000000001
aF810.5000000001
aF815.7500000001
aF820.7500000001
aF825.5000000001
aF830.5000000001
aF835.5000000001
aF840.5000000001
aF845.2500000001
aF850.2500000001
aF855.2500000001
aF860.2500000001
aF864.7500000001
aF869.7500000001
aF874.7500000001
aF879.5000000001
aF884.2500000001
aF889.0000000001
aF894.0000000001
aF898.7500000001
aF903.0000000001
aF908.2500000001
aF913.0000000001
aF918.0000000001
aF922.0000000001
aF927.2500000001
aF932.0000000001
aF937.0000000001
aF941.2500000001
aF946.5000000001
aF951.2500000001
aF956.0000000001
aF960.5000000001
aF965.5000000001
aF970.5000000001
aF975.2500000001
aF979.7500000001
aF984.7500000001
aF989.7500000001
aF994.5000000001
aF999.0000000001
aF1003.7500000001
aF1008.7500000001
aF1013.2500000001
aF1018.0000000001
aF1023.0000000001
aF1027.7500000001
aF1031.7500000001
aF1037.0000000001
aF1041.7500000001
aF1046.5000000001
aF1051.0000000001
aF1056.0000000001
aF1060.7500000001
aF1065.2500000001
aF1070.2500000001
aF1075.0000000001
aF1079.7500000001
aF1084.0000000001
aF1089.0000000001
aF1094.0000000001
aF1098.7500000001
aF1103.0000000001
aF1108.0000000001
aF1113.0000000001
aF1117.7500000001
aF1122.2500000001
aF1127.2500000001
aF1132.0000000001
aF1136.7500000001
aF1141.7500000001
aF1146.5000000001
aF1151.5000000001
aF1156.0000000001
aF1161.0000000001
aF1166.0000000001
aF1170.7500000001
aF1175.5000000001
aF1180.5000000001
aF1185.5000000001
aF1190.5000000001
aF1195.0000000001
aF1200.0000000001
aF1205.0000000001
aF1210.0000000001
aF1214.7500000001
aF1219.7500000001
aF1224.7500000001
aF1229.7500000001
aF1234.5000000001
aF1239.5000000001
aF1244.5000000001
aF1249.5000000001
aF1254.2500000001
aF1259.2500000001
aF1264.2500000001
aF1269.2500000001
aF1274.2500000001
aF1278.5000000001
aF1284.0000000001
aF1289.2500000001
aF1294.2500000001
aF1299.2500000001
aF1304.2500000001
aF1309.5000000001
aF1314.5000000001
aF1319.7500000001
aF1324.7500000001
aF1329.7500000001
aF1335.0000000001
aF1340.2500000001
aF1345.0000000001
aF1349.5000000001
aF1355.0000000001
aF1360.5000000001
aF1365.5000000001
aF1370.7500000001
aF1375.7500000001
aF1380.7500000001
aF1386.2500000001
aF1391.2500000001
aF1396.5000000001
aF1400.7500000001
aF1406.5000000001
aF1411.7500000001
aF1417.0000000001
aF1422.0000000001
aF1427.2500000001
aF1432.2500000001
aF1437.5000000001
aF1442.7500000001
aF1447.7500000001
aF1453.0000000001
aF1457.2500000001
aF1463.0000000001
aF1468.2500000001
aF1473.5000000001
aF1478.7500000001
aF1484.0000000001
aF1488.0000000001
aF1494.0000000001
aF1499.2500000001
aF1504.5000000001
aF1509.7500000001
aF1514.7500000001
aF1520.2500000001
aF1525.5000000001
aF1530.7500000001
aF1536.0000000001
aF1541.0000000001
aF1545.5000000001
aF1551.2500000001
aF1556.5000000001
aF1562.0000000001
aF1567.2500000001
aF1572.2500000001
aF1576.7500000001
aF1582.5000000001
aF1588.0000000001
aF1593.2500000001
aF1598.5000000001
aF1603.5000000001
aF1608.5000000001
aF1614.0000000001
aF1619.2500000001
aF1624.5000000001
aF1629.7500000001
aF1633.7500000001
aF1639.5000000001
aF1645.0000000001
aF1650.2500000001
aF1655.5000000001
aF1660.7500000001
aF1666.0000000001
aF1670.5000000001
aF1676.2500000001
aF1681.5000000001
aF1686.7500000001
aF1692.0000000001
aF1697.2500000001
aF1702.0000000001
aF1707.7500000001
aF1713.0000000001
aF1718.2500000001
aF1723.5000000001
aF1728.7500000001
aF1733.0000000001
aF1738.2500000001
aF1744.2500000001
aF1749.5000000001
aF1755.0000000001
aF1760.2500000001
aF1765.7500000001
aF1771.0000000001
aF1775.2500000001
aF1781.2500000001
aF1786.7500000001
aF1792.2500000001
aF1797.5000000001
aF1803.0000000001
aF1808.5000000001
aF1814.0000000001
aF1819.5000000001
aF1824.7500000001
aF1829.0000000001
aF1835.0000000001
aF1840.5000000001
aF1846.0000000001
aF1851.7500000001
aF1857.2500000001
aF1862.7500000001
aF1868.0000000001
aF1873.5000000001
aF1879.2500000001
aF1884.7500000001
aF1890.2500000001
aF1895.7500000001
aF1901.0000000001
aF1906.7500000001
aF1910.7500000001
aF1916.0000000001
aF1922.2500000001
aF1928.0000000001
aF1933.5000000001
aF1939.0000000001
aF1944.7500000001
aF1950.2500000001
aF1955.7500000001
aF1961.0000000001
aF1966.7500000001
aF1972.2500000001
aF1978.0000000001
aF1983.5000000001
aF1989.0000000001
aF1994.7500000001
aF1999.7500000001
a.