(lp0
F7.2500000001
aF44.7500000001
aF52.0000000001
aF59.0000000001
aF66.2500000001
aF73.2500000001
aF80.0000000001
aF86.7500000001
aF93.2500000001
aF100.0000000001
aF106.5000000001
aF113.2500000001
aF119.7500000001
aF126.5000000001
aF133.0000000001
aF139.7500000001
aF146.2500000001
aF152.7500000001
aF159.2500000001
aF166.0000000001
aF172.5000000001
aF179.0000000001
aF185.5000000001
aF192.0000000001
aF198.5000000001
aF205.0000000001
aF211.5000000001
aF217.7500000001
aF224.2500000001
aF230.7500000001
aF237.2500000001
aF243.5000000001
aF250.0000000001
aF256.2500000001
aF262.7500000001
aF269.0000000001
aF275.5000000001
aF281.7500000001
aF288.2500000001
aF294.5000000001
aF301.0000000001
aF307.2500000001
aF313.7500000001
aF320.0000000001
aF326.5000000001
aF332.7500000001
aF339.2500000001
aF345.7500000001
aF352.0000000001
aF358.2500000001
aF364.7500000001
aF371.0000000001
aF377.5000000001
aF383.7500000001
aF390.2500000001
aF396.5000000001
aF402.7500000001
aF409.2500000001
aF415.5000000001
aF422.0000000001
aF428.2500000001
aF434.7500000001
aF441.0000000001
aF447.5000000001
aF453.7500000001
aF460.0000000001
aF466.5000000001
aF472.7500000001
aF479.2500000001
aF485.5000000001
aF491.7500000001
aF498.0000000001
aF504.2500000001
aF510.5000000001
aF516.7500000001
aF523.0000000001
aF529.5000000001
aF535.7500000001
aF542.0000000001
aF548.2500000001
aF554.2500000001
aF560.5000000001
aF566.7500000001
aF573.0000000001
aF579.2500000001
aF585.5000000001
aF591.7500000001
aF598.0000000001
aF604.2500000001
aF610.7500000001
aF617.0000000001
aF623.2500000001
aF629.5000000001
aF635.5000000001
aF641.7500000001
aF648.0000000001
aF654.2500000001
aF660.5000000001
aF666.7500000001
aF673.0000000001
aF679.2500000001
aF685.5000000001
aF691.7500000001
aF698.0000000001
aF704.2500000001
aF710.5000000001
aF716.7500000001
aF723.0000000001
aF729.2500000001
aF735.5000000001
aF741.7500000001
aF748.0000000001
aF754.2500000001
aF760.5000000001
aF766.7500000001
aF773.0000000001
aF779.2500000001
aF785.5000000001
aF791.7500000001
aF798.0000000001
aF804.5000000001
aF810.7500000001
aF817.0000000001
aF823.2500000001
aF829.5000000001
aF835.7500000001
aF842.0000000001
aF848.2500000001
aF854.5000000001
aF860.7500000001
aF867.0000000001
aF873.2500000001
aF879.5000000001
aF885.7500000001
aF892.0000000001
aF898.0000000001
aF904.2500000001
aF910.5000000001
aF916.5000000001
aF922.7500000001
aF929.0000000001
aF935.2500000001
aF941.2500000001
aF947.5000000001
aF953.7500000001
aF959.7500000001
aF966.0000000001
aF972.2500000001
aF978.2500000001
aF984.5000000001
aF990.7500000001
aF996.7500000001
a.