(lp0
F1.0000000001
aF21.2500000001
aF27.5000000001
aF30.0000000001
aF35.2500000001
aF43.0000000001
aF49.2500000001
aF55.2500000001
aF61.5000000001
aF67.5000000001
aF73.2500000001
aF79.2500000001
aF85.0000000001
aF91.0000000001
aF96.7500000001
aF102.5000000001
aF108.2500000001
aF114.0000000001
aF120.0000000001
aF125.7500000001
aF131.5000000001
aF137.2500000001
aF143.0000000001
aF148.7500000001
aF154.5000000001
aF160.2500000001
aF166.0000000001
aF171.7500000001
aF177.2500000001
aF183.0000000001
aF188.7500000001
aF194.5000000001
aF200.0000000001
aF205.7500000001
aF211.5000000001
aF217.0000000001
aF222.7500000001
aF228.5000000001
aF234.0000000001
aF239.7500000001
aF245.5000000001
aF251.0000000001
aF256.7500000001
aF262.2500000001
aF268.0000000001
aF273.5000000001
aF279.2500000001
aF284.7500000001
aF290.2500000001
aF296.0000000001
aF301.5000000001
aF307.2500000001
aF312.7500000001
aF318.2500000001
aF324.0000000001
aF329.5000000001
aF335.0000000001
aF340.7500000001
aF346.2500000001
aF352.0000000001
aF357.5000000001
aF363.0000000001
aF368.7500000001
aF374.2500000001
aF380.0000000001
aF385.5000000001
aF391.2500000001
aF396.7500000001
aF402.5000000001
aF408.0000000001
aF413.7500000001
aF419.2500000001
aF425.0000000001
aF430.5000000001
aF436.2500000001
aF441.7500000001
aF447.2500000001
aF453.0000000001
aF458.5000000001
aF464.2500000001
aF469.7500000001
aF475.2500000001
aF481.0000000001
aF486.5000000001
aF492.0000000001
aF497.5000000001
aF503.2500000001
aF508.7500000001
aF514.2500000001
aF520.0000000001
aF525.5000000001
aF531.0000000001
aF536.5000000001
aF542.0000000001
aF547.7500000001
aF553.2500000001
aF558.7500000001
aF564.2500000001
aF569.7500000001
aF575.2500000001
aF580.7500000001
aF586.2500000001
aF591.7500000001
aF597.2500000001
aF602.5000000001
aF608.0000000001
aF613.5000000001
aF619.0000000001
aF624.5000000001
aF630.0000000001
aF635.5000000001
aF641.0000000001
aF646.5000000001
aF652.0000000001
aF657.5000000001
aF663.0000000001
aF668.5000000001
aF674.0000000001
aF679.5000000001
aF685.0000000001
aF690.5000000001
aF696.0000000001
aF701.5000000001
aF707.0000000001
aF712.7500000001
aF718.2500000001
aF723.7500000001
aF729.2500000001
aF734.7500000001
aF740.2500000001
aF745.7500000001
aF751.2500000001
aF756.7500000001
aF762.2500000001
aF767.7500000001
aF773.2500000001
aF778.7500000001
aF784.2500000001
aF789.7500000001
aF795.2500000001
aF800.7500000001
aF806.2500000001
aF811.5000000001
aF817.0000000001
aF822.5000000001
aF828.0000000001
aF833.2500000001
aF838.7500000001
aF844.2500000001
aF849.7500000001
aF855.2500000001
aF860.7500000001
aF866.0000000001
aF871.5000000001
aF877.0000000001
aF882.5000000001
aF888.0000000001
aF893.5000000001
aF899.0000000001
aF904.5000000001
aF910.0000000001
aF915.5000000001
aF921.0000000001
aF926.5000000001
aF932.0000000001
aF937.5000000001
aF943.0000000001
aF948.5000000001
aF954.0000000001
aF959.5000000001
aF965.0000000001
aF970.5000000001
aF976.0000000001
aF981.7500000001
aF987.2500000001
aF992.7500000001
aF998.2500000001
a.