(lp0
F1.2500000001
aF28.5000000001
aF31.2500000001
aF39.5000000001
aF46.2500000001
aF52.7500000001
aF59.0000000001
aF65.2500000001
aF71.5000000001
aF77.7500000001
aF83.7500000001
aF89.7500000001
aF95.7500000001
aF101.7500000001
aF108.0000000001
aF114.0000000001
aF120.0000000001
aF126.0000000001
aF132.0000000001
aF138.0000000001
aF144.0000000001
aF150.0000000001
aF156.0000000001
aF162.0000000001
aF167.7500000001
aF173.7500000001
aF179.7500000001
aF185.5000000001
aF191.5000000001
aF197.2500000001
aF203.2500000001
aF209.0000000001
aF215.0000000001
aF220.7500000001
aF226.7500000001
aF232.5000000001
aF238.5000000001
aF244.2500000001
aF250.2500000001
aF256.0000000001
aF262.0000000001
aF267.7500000001
aF273.7500000001
aF279.5000000001
aF285.2500000001
aF291.2500000001
aF297.0000000001
aF302.7500000001
aF308.7500000001
aF314.5000000001
aF320.2500000001
aF326.0000000001
aF332.0000000001
aF337.7500000001
aF343.5000000001
aF349.2500000001
aF355.0000000001
aF361.0000000001
aF366.7500000001
aF372.5000000001
aF378.2500000001
aF384.0000000001
aF390.0000000001
aF395.7500000001
aF401.5000000001
aF407.2500000001
aF413.0000000001
aF419.0000000001
aF424.7500000001
aF430.5000000001
aF436.5000000001
aF442.2500000001
aF448.0000000001
aF453.7500000001
aF459.7500000001
aF465.5000000001
aF471.2500000001
aF477.0000000001
aF482.7500000001
aF488.7500000001
aF494.5000000001
aF500.2500000001
aF506.0000000001
aF511.7500000001
aF517.5000000001
aF523.2500000001
aF529.0000000001
aF534.7500000001
aF540.5000000001
aF546.2500000001
aF552.0000000001
aF557.7500000001
aF563.5000000001
aF569.2500000001
aF575.0000000001
aF580.7500000001
aF586.5000000001
aF592.2500000001
aF598.0000000001
aF603.5000000001
aF609.2500000001
aF615.0000000001
aF620.7500000001
aF626.5000000001
aF632.2500000001
aF638.0000000001
aF643.5000000001
aF649.2500000001
aF655.0000000001
aF660.5000000001
aF666.2500000001
aF672.0000000001
aF677.5000000001
aF683.2500000001
aF688.7500000001
aF694.5000000001
aF700.0000000001
aF705.7500000001
aF711.5000000001
aF717.0000000001
aF722.7500000001
aF728.5000000001
aF734.0000000001
aF739.7500000001
aF745.5000000001
aF751.2500000001
aF756.7500000001
aF762.5000000001
aF768.2500000001
aF774.0000000001
aF779.7500000001
aF785.5000000001
aF791.0000000001
aF796.7500000001
aF802.5000000001
aF808.2500000001
aF814.0000000001
aF819.5000000001
aF825.2500000001
aF831.0000000001
aF836.7500000001
aF842.5000000001
aF848.2500000001
aF853.7500000001
aF859.5000000001
aF865.2500000001
aF871.0000000001
aF876.7500000001
aF882.2500000001
aF888.0000000001
aF893.7500000001
aF899.5000000001
aF905.0000000001
aF910.7500000001
aF916.5000000001
aF922.0000000001
aF927.7500000001
aF933.5000000001
aF939.2500000001
aF944.7500000001
aF950.5000000001
aF956.2500000001
aF962.0000000001
aF967.7500000001
aF973.2500000001
aF979.0000000001
aF984.7500000001
aF990.5000000001
aF996.0000000001
a.