(lp0
F7.7500000001
aF49.2500000001
aF74.0000000001
aF81.7500000001
aF89.5000000001
aF97.2500000001
aF105.0000000001
aF112.5000000001
aF119.7500000001
aF127.0000000001
aF134.0000000001
aF141.2500000001
aF148.2500000001
aF155.2500000001
aF162.2500000001
aF169.2500000001
aF176.2500000001
aF183.2500000001
aF190.0000000001
aF197.0000000001
aF203.7500000001
aF210.7500000001
aF217.7500000001
aF224.5000000001
aF231.5000000001
aF238.2500000001
aF245.2500000001
aF252.0000000001
aF258.7500000001
aF265.5000000001
aF272.5000000001
aF279.2500000001
aF286.0000000001
aF292.7500000001
aF299.5000000001
aF306.2500000001
aF313.0000000001
aF319.7500000001
aF326.5000000001
aF333.2500000001
aF340.0000000001
aF346.7500000001
aF353.5000000001
aF360.2500000001
aF367.0000000001
aF374.0000000001
aF380.5000000001
aF387.2500000001
aF394.0000000001
aF400.7500000001
aF407.5000000001
aF414.2500000001
aF421.0000000001
aF427.5000000001
aF434.2500000001
aF440.7500000001
aF447.5000000001
aF454.2500000001
aF460.7500000001
aF467.5000000001
aF474.2500000001
aF480.7500000001
aF487.5000000001
aF494.2500000001
aF500.7500000001
aF507.5000000001
aF514.2500000001
aF521.0000000001
aF527.7500000001
aF534.2500000001
aF541.0000000001
aF547.7500000001
aF554.5000000001
aF561.0000000001
aF567.7500000001
aF574.5000000001
aF581.2500000001
aF588.0000000001
aF594.5000000001
aF601.2500000001
aF608.0000000001
aF614.5000000001
aF621.2500000001
aF628.0000000001
aF634.7500000001
aF641.2500000001
aF648.0000000001
aF654.7500000001
aF661.5000000001
aF668.0000000001
aF674.7500000001
aF681.5000000001
aF688.0000000001
aF694.7500000001
aF701.2500000001
aF708.0000000001
aF714.5000000001
aF721.2500000001
aF727.7500000001
aF734.5000000001
aF741.0000000001
aF747.7500000001
aF754.2500000001
aF761.0000000001
aF767.5000000001
aF774.2500000001
aF780.7500000001
aF787.5000000001
aF794.2500000001
aF800.7500000001
aF807.5000000001
aF814.2500000001
aF820.7500000001
aF827.5000000001
aF834.0000000001
aF840.7500000001
aF847.2500000001
aF854.0000000001
aF860.5000000001
aF867.2500000001
aF873.7500000001
aF880.2500000001
aF886.7500000001
aF893.2500000001
aF900.0000000001
aF906.5000000001
aF913.0000000001
aF919.5000000001
aF926.2500000001
aF932.7500000001
aF939.2500000001
aF945.7500000001
aF952.5000000001
aF959.0000000001
aF965.5000000001
aF972.2500000001
aF978.7500000001
aF985.2500000001
aF992.0000000001
aF998.5000000001
a.