(lp0
F1.5000000001
aF30.7500000001
aF33.5000000001
aF42.0000000001
aF49.0000000001
aF55.7500000001
aF62.2500000001
aF69.0000000001
aF75.5000000001
aF81.7500000001
aF88.0000000001
aF94.2500000001
aF100.7500000001
aF107.0000000001
aF113.2500000001
aF119.5000000001
aF126.0000000001
aF132.2500000001
aF138.5000000001
aF144.7500000001
aF151.0000000001
aF157.2500000001
aF163.5000000001
aF169.7500000001
aF175.7500000001
aF181.7500000001
aF187.7500000001
aF193.7500000001
aF199.7500000001
aF205.7500000001
aF211.7500000001
aF217.5000000001
aF223.5000000001
aF229.2500000001
aF235.2500000001
aF241.2500000001
aF247.0000000001
aF252.7500000001
aF258.7500000001
aF264.5000000001
aF270.2500000001
aF276.0000000001
aF282.0000000001
aF287.7500000001
aF293.5000000001
aF299.2500000001
aF305.0000000001
aF310.7500000001
aF316.5000000001
aF322.2500000001
aF328.2500000001
aF334.0000000001
aF339.7500000001
aF345.2500000001
aF351.0000000001
aF356.7500000001
aF362.5000000001
aF368.2500000001
aF374.0000000001
aF379.5000000001
aF385.2500000001
aF391.0000000001
aF396.5000000001
aF402.2500000001
aF408.0000000001
aF413.5000000001
aF419.2500000001
aF424.7500000001
aF430.5000000001
aF436.0000000001
aF441.7500000001
aF447.2500000001
aF453.0000000001
aF458.5000000001
aF464.2500000001
aF469.7500000001
aF475.5000000001
aF481.2500000001
aF486.7500000001
aF492.5000000001
aF498.0000000001
aF503.7500000001
aF509.2500000001
aF515.0000000001
aF520.7500000001
aF526.5000000001
aF532.0000000001
aF537.7500000001
aF543.5000000001
aF549.2500000001
aF555.0000000001
aF560.7500000001
aF566.5000000001
aF572.2500000001
aF578.0000000001
aF583.7500000001
aF589.5000000001
aF595.2500000001
aF601.0000000001
aF607.0000000001
aF612.7500000001
aF618.5000000001
aF624.0000000001
aF629.7500000001
aF635.5000000001
aF641.0000000001
aF646.7500000001
aF652.2500000001
aF658.0000000001
aF663.5000000001
aF669.0000000001
aF674.5000000001
aF680.0000000001
aF685.5000000001
aF691.0000000001
aF696.2500000001
aF701.5000000001
aF706.7500000001
aF712.0000000001
aF717.2500000001
aF722.5000000001
aF727.7500000001
aF733.0000000001
aF738.2500000001
aF743.2500000001
aF748.2500000001
aF753.5000000001
aF758.7500000001
aF764.0000000001
aF769.2500000001
aF774.5000000001
aF779.7500000001
aF785.0000000001
aF790.5000000001
aF795.7500000001
aF801.0000000001
aF806.5000000001
aF811.7500000001
aF817.0000000001
aF822.5000000001
aF827.7500000001
aF833.0000000001
aF838.2500000001
aF843.5000000001
aF848.7500000001
aF854.0000000001
aF859.0000000001
aF864.2500000001
aF869.0000000001
aF874.0000000001
aF878.0000000001
aF883.7500000001
aF889.0000000001
aF894.0000000001
aF899.2500000001
aF904.2500000001
aF909.2500000001
aF914.2500000001
aF919.0000000001
aF923.0000000001
aF928.7500000001
aF933.7500000001
aF939.0000000001
aF944.0000000001
aF949.0000000001
aF954.2500000001
aF959.2500000001
aF964.0000000001
aF969.0000000001
aF973.0000000001
aF978.7500000001
aF984.0000000001
aF989.0000000001
aF994.0000000001
aF999.2500000001
a.