(lp0
F7.2500000001
aF23.7500000001
aF32.0000000001
aF41.5000000001
aF48.5000000001
aF55.5000000001
aF62.0000000001
aF68.7500000001
aF75.2500000001
aF82.0000000001
aF88.7500000001
aF95.2500000001
aF102.0000000001
aF108.5000000001
aF115.0000000001
aF121.7500000001
aF128.5000000001
aF135.0000000001
aF141.5000000001
aF148.0000000001
aF154.5000000001
aF161.0000000001
aF167.5000000001
aF173.7500000001
aF180.0000000001
aF186.2500000001
aF192.5000000001
aF198.7500000001
aF205.2500000001
aF211.5000000001
aF217.7500000001
aF223.7500000001
aF230.0000000001
aF236.0000000001
aF242.2500000001
aF248.2500000001
aF254.2500000001
aF260.5000000001
aF266.5000000001
aF272.5000000001
aF278.5000000001
aF284.5000000001
aF290.7500000001
aF296.7500000001
aF302.7500000001
aF308.7500000001
aF315.0000000001
aF321.0000000001
aF327.2500000001
aF333.2500000001
aF339.2500000001
aF345.2500000001
aF351.2500000001
aF357.5000000001
aF363.5000000001
aF369.5000000001
aF375.5000000001
aF381.5000000001
aF387.2500000001
aF393.2500000001
aF399.2500000001
aF405.0000000001
aF411.0000000001
aF417.0000000001
aF422.7500000001
aF428.5000000001
aF434.5000000001
aF440.2500000001
aF446.2500000001
aF452.0000000001
aF458.0000000001
aF463.7500000001
aF469.7500000001
aF475.5000000001
aF481.5000000001
aF487.2500000001
aF493.2500000001
aF499.0000000001
aF504.7500000001
aF510.5000000001
aF516.5000000001
aF522.2500000001
aF528.0000000001
aF534.0000000001
aF539.7500000001
aF545.7500000001
aF551.5000000001
aF557.2500000001
aF563.0000000001
aF569.0000000001
aF574.7500000001
aF580.5000000001
aF586.2500000001
aF592.0000000001
aF598.0000000001
aF603.7500000001
aF609.5000000001
aF615.5000000001
aF621.0000000001
aF626.7500000001
aF632.2500000001
aF638.0000000001
aF643.5000000001
aF649.2500000001
aF654.7500000001
aF660.2500000001
aF666.0000000001
aF671.5000000001
aF677.0000000001
aF682.7500000001
aF688.2500000001
aF693.7500000001
aF699.5000000001
aF705.0000000001
aF710.5000000001
aF716.0000000001
aF721.5000000001
aF727.2500000001
aF732.7500000001
aF738.2500000001
aF744.0000000001
aF749.5000000001
aF755.0000000001
aF760.5000000001
aF766.0000000001
aF771.5000000001
aF777.2500000001
aF782.5000000001
aF788.0000000001
aF793.5000000001
aF799.0000000001
aF804.2500000001
aF809.5000000001
aF815.0000000001
aF820.5000000001
aF825.7500000001
aF831.2500000001
aF836.7500000001
aF842.2500000001
aF847.5000000001
aF853.0000000001
aF858.5000000001
aF863.7500000001
aF869.0000000001
aF874.2500000001
aF879.7500000001
aF885.2500000001
aF890.5000000001
aF896.0000000001
aF901.5000000001
aF907.0000000001
aF912.5000000001
aF918.0000000001
aF923.2500000001
aF928.2500000001
aF933.5000000001
aF938.7500000001
aF944.2500000001
aF949.5000000001
aF954.5000000001
aF959.7500000001
aF964.5000000001
aF969.0000000001
aF974.7500000001
aF980.0000000001
aF985.2500000001
aF990.5000000001
aF995.5000000001
a.