(lp0
F7.7500000001
aF33.0000000001
aF43.0000000001
aF51.5000000001
aF59.2500000001
aF66.7500000001
aF73.5000000001
aF80.0000000001
aF86.5000000001
aF93.0000000001
aF99.2500000001
aF105.5000000001
aF112.0000000001
aF118.2500000001
aF124.5000000001
aF131.0000000001
aF137.2500000001
aF143.2500000001
aF149.5000000001
aF155.5000000001
aF161.5000000001
aF167.5000000001
aF173.2500000001
aF179.2500000001
aF185.0000000001
aF190.7500000001
aF196.2500000001
aF202.0000000001
aF207.5000000001
aF212.7500000001
aF218.5000000001
aF223.7500000001
aF228.0000000001
aF234.0000000001
aF239.5000000001
aF245.0000000001
aF250.5000000001
aF255.7500000001
aF261.0000000001
aF265.0000000001
aF271.0000000001
aF276.2500000001
aF281.5000000001
aF286.7500000001
aF291.7500000001
aF296.7500000001
aF302.0000000001
aF307.2500000001
aF312.2500000001
aF317.5000000001
aF322.2500000001
aF327.5000000001
aF332.7500000001
aF337.7500000001
aF341.7500000001
aF347.7500000001
aF353.0000000001
aF358.2500000001
aF363.2500000001
aF368.5000000001
aF373.5000000001
aF378.7500000001
aF384.0000000001
aF389.0000000001
aF394.0000000001
aF399.0000000001
aF404.2500000001
aF409.5000000001
aF414.5000000001
aF419.0000000001
aF424.5000000001
aF429.7500000001
aF435.0000000001
aF439.7500000001
aF445.0000000001
aF450.0000000001
aF455.2500000001
aF460.2500000001
aF465.2500000001
aF470.2500000001
aF475.5000000001
aF480.5000000001
aF485.5000000001
aF490.0000000001
aF495.5000000001
aF500.5000000001
aF505.7500000001
aF510.5000000001
aF515.5000000001
aF520.7500000001
aF525.7500000001
aF531.0000000001
aF535.0000000001
aF540.7500000001
aF546.0000000001
aF551.0000000001
aF556.0000000001
aF560.2500000001
aF566.0000000001
aF571.0000000001
aF576.2500000001
aF581.2500000001
aF585.5000000001
aF591.0000000001
aF596.2500000001
aF601.5000000001
aF606.2500000001
aF611.0000000001
aF616.2500000001
aF621.5000000001
aF626.5000000001
aF631.5000000001
aF636.5000000001
aF641.7500000001
aF646.7500000001
aF651.7500000001
aF655.7500000001
aF661.2500000001
aF666.5000000001
aF671.5000000001
aF676.2500000001
aF681.0000000001
aF686.0000000001
aF691.0000000001
aF695.5000000001
aF700.5000000001
aF705.5000000001
aF710.5000000001
aF715.2500000001
aF720.0000000001
aF725.0000000001
aF729.7500000001
aF734.0000000001
aF739.2500000001
aF744.2500000001
aF749.2500000001
aF753.7500000001
aF758.7500000001
aF763.7500000001
aF768.5000000001
aF773.2500000001
aF778.2500000001
aF783.0000000001
aF788.0000000001
aF792.2500000001
aF797.2500000001
aF802.2500000001
aF807.0000000001
aF811.5000000001
aF816.5000000001
aF821.5000000001
aF826.2500000001
aF830.5000000001
aF835.7500000001
aF840.5000000001
aF845.2500000001
aF850.0000000001
aF854.7500000001
aF859.5000000001
aF863.5000000001
aF868.5000000001
aF873.2500000001
aF878.0000000001
aF882.5000000001
aF887.2500000001
aF891.7500000001
aF895.7500000001
aF900.7500000001
aF905.5000000001
aF909.7500000001
aF914.5000000001
aF919.2500000001
aF923.7500000001
aF928.2500000001
aF933.0000000001
aF937.5000000001
aF942.0000000001
aF946.5000000001
aF951.2500000001
aF955.5000000001
aF960.2500000001
aF964.7500000001
aF969.2500000001
aF974.0000000001
aF978.5000000001
aF983.0000000001
aF987.7500000001
aF992.2500000001
aF996.7500000001
aF1001.5000000001
aF1006.0000000001
aF1010.7500000001
aF1015.2500000001
aF1019.7500000001
aF1024.2500000001
aF1028.7500000001
aF1033.5000000001
aF1038.0000000001
aF1042.0000000001
aF1047.0000000001
aF1051.5000000001
aF1056.0000000001
aF1060.5000000001
aF1065.2500000001
aF1069.5000000001
aF1074.2500000001
aF1078.7500000001
aF1083.2500000001
aF1087.7500000001
aF1092.2500000001
aF1096.7500000001
aF1101.2500000001
aF1105.7500000001
aF1110.2500000001
aF1114.7500000001
aF1119.2500000001
aF1123.7500000001
aF1128.2500000001
aF1133.0000000001
aF1137.5000000001
aF1142.0000000001
aF1146.5000000001
aF1151.2500000001
aF1155.7500000001
aF1160.2500000001
aF1165.0000000001
aF1169.5000000001
aF1174.0000000001
aF1178.7500000001
aF1183.0000000001
aF1187.7500000001
aF1192.2500000001
aF1196.7500000001
aF1201.5000000001
aF1206.0000000001
aF1210.5000000001
aF1215.0000000001
aF1219.5000000001
aF1224.0000000001
aF1228.5000000001
aF1233.0000000001
aF1237.2500000001
aF1242.0000000001
aF1246.5000000001
aF1250.7500000001
aF1255.2500000001
aF1259.7500000001
aF1264.2500000001
aF1268.7500000001
aF1273.2500000001
aF1277.7500000001
aF1282.2500000001
aF1286.7500000001
aF1291.2500000001
aF1295.7500000001
aF1300.2500000001
aF1305.0000000001
aF1309.2500000001
aF1313.7500000001
aF1318.5000000001
aF1323.0000000001
aF1327.5000000001
aF1332.0000000001
aF1336.5000000001
aF1341.2500000001
aF1345.7500000001
aF1350.2500000001
aF1355.0000000001
aF1359.7500000001
aF1364.0000000001
aF1369.0000000001
aF1373.5000000001
aF1378.0000000001
aF1382.7500000001
aF1387.5000000001
aF1392.2500000001
aF1396.7500000001
aF1401.2500000001
aF1405.7500000001
aF1410.2500000001
aF1414.5000000001
aF1419.0000000001
aF1423.2500000001
aF1427.7500000001
aF1432.2500000001
aF1436.2500000001
aF1441.0000000001
aF1445.5000000001
aF1449.5000000001
aF1454.0000000001
aF1458.5000000001
aF1463.0000000001
aF1467.2500000001
aF1471.7500000001
aF1476.0000000001
aF1480.5000000001
aF1485.0000000001
aF1489.5000000001
aF1494.0000000001
aF1498.2500000001
aF1502.5000000001
aF1507.2500000001
aF1511.7500000001
aF1516.2500000001
aF1520.7500000001
aF1525.2500000001
aF1529.5000000001
aF1534.0000000001
aF1538.5000000001
aF1543.0000000001
aF1547.5000000001
aF1552.0000000001
aF1556.5000000001
aF1561.0000000001
aF1565.7500000001
aF1570.2500000001
aF1574.7500000001
aF1579.2500000001
aF1584.0000000001
aF1588.5000000001
aF1593.0000000001
aF1597.7500000001
aF1602.2500000001
aF1607.0000000001
aF1611.5000000001
aF1616.2500000001
aF1621.0000000001
aF1625.5000000001
aF1630.2500000001
aF1635.0000000001
aF1639.5000000001
aF1643.7500000001
aF1648.7500000001
aF1653.5000000001
aF1658.2500000001
aF1662.7500000001
aF1667.5000000001
aF1672.2500000001
aF1676.7500000001
aF1681.5000000001
aF1686.2500000001
aF1691.0000000001
aF1695.7500000001
aF1700.5000000001
aF1705.2500000001
aF1709.7500000001
aF1714.5000000001
aF1719.2500000001
aF1724.0000000001
aF1728.5000000001
aF1733.2500000001
aF1738.0000000001
aF1742.7500000001
aF1747.5000000001
aF1752.5000000001
aF1757.2500000001
aF1761.2500000001
aF1766.7500000001
aF1771.7500000001
aF1776.7500000001
aF1781.5000000001
aF1786.5000000001
aF1791.5000000001
aF1796.7500000001
aF1801.5000000001
aF1806.5000000001
aF1811.7500000001
aF1817.0000000001
aF1822.0000000001
aF1827.0000000001
aF1832.2500000001
aF1837.5000000001
aF1842.7500000001
aF1848.0000000001
aF1853.2500000001
aF1858.5000000001
aF1863.2500000001
aF1869.0000000001
aF1874.5000000001
aF1879.7500000001
aF1885.0000000001
aF1889.0000000001
aF1895.2500000001
aF1900.7500000001
aF1906.2500000001
aF1911.7500000001
aF1917.2500000001
aF1922.7500000001
aF1928.2500000001
aF1933.7500000001
aF1939.2500000001
aF1944.7500000001
aF1950.2500000001
aF1955.7500000001
aF1961.2500000001
aF1966.7500000001
aF1971.0000000001
aF1977.2500000001
aF1982.7500000001
aF1988.5000000001
aF1994.2500000001
aF1999.7500000001
a.